(dp1
S'layout'
p2
(ilayout
Layout
p3
(dp4
S'capsules'
p5
(lp6
(I6
I5
tp7
a(I25
I10
tp8
asS'numGhosts'
p9
I4
sS'food'
p10
(igame
Grid
p11
(dp12
S'CELLS_PER_INT'
p13
I30
sS'width'
p14
I32
sS'data'
p15
(lp16
(lp17
I00
aI00
aI00
aI00
aI00
aI00
aI00
aI00
aI00
aI00
aI00
aI00
aI00
aI00
aI00
aI00
aa(lp18
I00
aI00
aI00
aI00
aI00
aI00
aI00
aI00
aI00
aI00
aI00
aI00
aI00
aI00
aI00
aI00
aa(lp19
I00
aI00
aI00
aI00
aI00
aI00
aI00
aI00
aI00
aI00
aI00
aI00
aI00
aI00
aI00
aI00
aa(lp20
I00
aI01
aI01
aI00
aI00
aI00
aI00
aI00
aI01
aI00
aI00
aI00
aI00
aI00
aI00
aI00
aa(lp21
I00
aI00
aI00
aI00
aI00
aI00
aI00
aI00
aI00
aI00
aI00
aI00
aI00
aI00
aI00
aI00
aa(lp22
I00
aI01
aI00
aI00
aI00
aI00
aI00
aI00
aI00
aI00
aI00
aI00
aI01
aI00
aI01
aI00
aa(lp23
I00
aI00
aI00
aI00
aI00
aI00
aI00
aI00
aI00
aI00
aI00
aI00
aI00
aI00
aI00
aI00
aa(lp24
I00
aI00
aI00
aI01
aI00
aI00
aI00
aI00
aI01
aI01
aI00
aI00
aI00
aI00
aI00
aI00
aa(lp25
I00
aI00
aI00
aI01
aI00
aI00
aI00
aI00
aI00
aI01
aI00
aI00
aI00
aI00
aI01
aI00
aa(lp26
I00
aI00
aI00
aI00
aI00
aI01
aI00
aI00
aI00
aI00
aI00
aI01
aI00
aI00
aI00
aI00
aa(lp27
I00
aI00
aI00
aI01
aI00
aI00
aI00
aI01
aI00
aI01
aI00
aI01
aI00
aI00
aI01
aI00
aa(lp28
I00
aI00
aI00
aI00
aI00
aI00
aI00
aI00
aI00
aI00
aI00
aI00
aI00
aI00
aI00
aI00
aa(lp29
I00
aI00
aI00
aI00
aI00
aI00
aI00
aI00
aI00
aI00
aI00
aI00
aI00
aI00
aI00
aI00
aa(lp30
I00
aI00
aI00
aI00
aI00
aI00
aI00
aI00
aI00
aI00
aI00
aI00
aI00
aI00
aI00
aI00
aa(lp31
I00
aI00
aI00
aI00
aI00
aI00
aI00
aI00
aI00
aI01
aI00
aI00
aI00
aI00
aI00
aI00
aa(lp32
I00
aI00
aI00
aI00
aI00
aI00
aI00
aI00
aI00
aI00
aI00
aI00
aI00
aI00
aI00
aI00
aa(lp33
I00
aI00
aI00
aI00
aI00
aI00
aI00
aI00
aI00
aI00
aI00
aI00
aI00
aI00
aI00
aI00
aa(lp34
I00
aI00
aI00
aI00
aI00
aI00
aI01
aI00
aI00
aI00
aI00
aI00
aI00
aI00
aI00
aI00
aa(lp35
I00
aI00
aI00
aI00
aI00
aI00
aI00
aI00
aI00
aI00
aI00
aI00
aI00
aI00
aI00
aI00
aa(lp36
I00
aI00
aI00
aI00
aI00
aI00
aI00
aI00
aI00
aI00
aI00
aI00
aI00
aI00
aI00
aI00
aa(lp37
I00
aI00
aI00
aI00
aI00
aI00
aI00
aI00
aI00
aI00
aI00
aI00
aI00
aI00
aI00
aI00
aa(lp38
I00
aI01
aI00
aI00
aI01
aI00
aI01
aI00
aI01
aI00
aI00
aI00
aI01
aI00
aI00
aI00
aa(lp39
I00
aI00
aI00
aI00
aI01
aI00
aI00
aI00
aI00
aI00
aI01
aI00
aI00
aI00
aI00
aI00
aa(lp40
I00
aI01
aI00
aI00
aI00
aI00
aI01
aI00
aI00
aI00
aI00
aI00
aI01
aI00
aI00
aI00
aa(lp41
I00
aI00
aI00
aI00
aI00
aI00
aI01
aI01
aI00
aI00
aI00
aI00
aI01
aI00
aI00
aI00
aa(lp42
I00
aI00
aI00
aI00
aI00
aI00
aI00
aI00
aI00
aI00
aI00
aI00
aI00
aI00
aI00
aI00
aa(lp43
I00
aI01
aI00
aI01
aI00
aI00
aI00
aI00
aI00
aI00
aI00
aI00
aI00
aI00
aI01
aI00
aa(lp44
I00
aI00
aI00
aI00
aI00
aI00
aI00
aI00
aI00
aI00
aI00
aI00
aI00
aI00
aI00
aI00
aa(lp45
I00
aI00
aI00
aI00
aI00
aI00
aI00
aI01
aI00
aI00
aI00
aI00
aI00
aI01
aI01
aI00
aa(lp46
I00
aI00
aI00
aI00
aI00
aI00
aI00
aI00
aI00
aI00
aI00
aI00
aI00
aI00
aI00
aI00
aa(lp47
I00
aI00
aI00
aI00
aI00
aI00
aI00
aI00
aI00
aI00
aI00
aI00
aI00
aI00
aI00
aI00
aa(lp48
I00
aI00
aI00
aI00
aI00
aI00
aI00
aI00
aI00
aI00
aI00
aI00
aI00
aI00
aI00
aI00
aasS'height'
p49
I16
sbsS'agentPositions'
p50
(lp51
(I00
(I1
I2
tp52
tp53
a(I00
(I30
I13
tp54
tp55
a(I00
(I1
I1
tp56
tp57
a(I00
(I30
I14
tp58
tp59
asg49
I16
sg14
I32
sS'walls'
p60
(igame
Grid
p61
(dp62
g13
I30
sg14
I32
sg15
(lp63
(lp64
I01
aI01
aI01
aI01
aI01
aI01
aI01
aI01
aI01
aI01
aI01
aI01
aI01
aI01
aI01
aI01
aa(lp65
I01
aI00
aI00
aI00
aI00
aI00
aI00
aI00
aI00
aI00
aI00
aI00
aI00
aI00
aI00
aI01
aa(lp66
I01
aI01
aI01
aI01
aI01
aI01
aI01
aI01
aI01
aI01
aI01
aI01
aI01
aI01
aI00
aI01
aa(lp67
I01
aI00
aI00
aI00
aI00
aI00
aI00
aI01
aI00
aI01
aI00
aI00
aI00
aI00
aI00
aI01
aa(lp68
I01
aI01
aI01
aI01
aI01
aI01
aI00
aI00
aI00
aI00
aI00
aI01
aI01
aI01
aI01
aI01
aa(lp69
I01
aI00
aI00
aI00
aI00
aI00
aI00
aI00
aI01
aI01
aI00
aI01
aI00
aI01
aI00
aI01
aa(lp70
I01
aI01
aI00
aI01
aI01
aI00
aI01
aI01
aI01
aI00
aI00
aI00
aI00
aI00
aI00
aI01
aa(lp71
I01
aI00
aI00
aI00
aI01
aI00
aI00
aI01
aI00
aI00
aI01
aI01
aI01
aI00
aI01
aI01
aa(lp72
I01
aI00
aI01
aI00
aI01
aI01
aI00
aI01
aI01
aI00
aI01
aI00
aI00
aI00
aI00
aI01
aa(lp73
I01
aI00
aI01
aI01
aI01
aI00
aI00
aI01
aI01
aI01
aI01
aI00
aI01
aI00
aI01
aI01
aa(lp74
I01
aI00
aI01
aI00
aI01
aI01
aI00
aI00
aI01
aI00
aI01
aI00
aI01
aI00
aI00
aI01
aa(lp75
I01
aI00
aI00
aI00
aI00
aI01
aI00
aI01
aI01
aI00
aI01
aI01
aI01
aI00
aI01
aI01
aa(lp76
I01
aI01
aI00
aI01
aI00
aI01
aI00
aI00
aI00
aI00
aI00
aI00
aI00
aI00
aI00
aI01
aa(lp77
I01
aI00
aI00
aI01
aI00
aI00
aI00
aI00
aI00
aI01
aI01
aI01
aI00
aI01
aI00
aI01
aa(lp78
I01
aI00
aI01
aI01
aI01
aI00
aI01
aI00
aI00
aI00
aI01
aI00
aI00
aI01
aI00
aI01
aa(lp79
I01
aI00
aI00
aI01
aI00
aI00
aI01
aI00
aI00
aI01
aI01
aI00
aI00
aI00
aI00
aI01
aa(lp80
I01
aI00
aI00
aI00
aI00
aI01
aI01
aI00
aI00
aI01
aI00
aI00
aI01
aI00
aI00
aI01
aa(lp81
I01
aI00
aI01
aI00
aI00
aI01
aI00
aI00
aI00
aI01
aI00
aI01
aI01
aI01
aI00
aI01
aa(lp82
I01
aI00
aI01
aI00
aI01
aI01
aI01
aI00
aI00
aI00
aI00
aI00
aI01
aI00
aI00
aI01
aa(lp83
I01
aI00
aI00
aI00
aI00
aI00
aI00
aI00
aI00
aI00
aI01
aI00
aI01
aI00
aI01
aI01
aa(lp84
I01
aI01
aI00
aI01
aI01
aI01
aI00
aI01
aI01
aI00
aI01
aI00
aI00
aI00
aI00
aI01
aa(lp85
I01
aI00
aI00
aI01
aI00
aI01
aI00
aI01
aI00
aI00
aI01
aI01
aI00
aI01
aI00
aI01
aa(lp86
I01
aI01
aI00
aI01
aI00
aI01
aI01
aI01
aI01
aI00
aI00
aI01
aI01
aI01
aI00
aI01
aa(lp87
I01
aI00
aI00
aI00
aI00
aI01
aI00
aI01
aI01
aI00
aI01
aI01
aI00
aI01
aI00
aI01
aa(lp88
I01
aI01
aI00
aI01
aI01
aI01
aI00
aI00
aI01
aI00
aI00
aI01
aI00
aI00
aI00
aI01
aa(lp89
I01
aI00
aI00
aI00
aI00
aI00
aI00
aI01
aI01
aI01
aI00
aI01
aI01
aI00
aI01
aI01
aa(lp90
I01
aI00
aI01
aI00
aI01
aI00
aI01
aI01
aI00
aI00
aI00
aI00
aI00
aI00
aI00
aI01
aa(lp91
I01
aI01
aI01
aI01
aI01
aI00
aI00
aI00
aI00
aI00
aI01
aI01
aI01
aI01
aI01
aI01
aa(lp92
I01
aI00
aI00
aI00
aI00
aI00
aI01
aI00
aI01
aI00
aI00
aI00
aI00
aI00
aI00
aI01
aa(lp93
I01
aI00
aI01
aI01
aI01
aI01
aI01
aI01
aI01
aI01
aI01
aI01
aI01
aI01
aI01
aI01
aa(lp94
I01
aI00
aI00
aI00
aI00
aI00
aI00
aI00
aI00
aI00
aI00
aI00
aI00
aI00
aI00
aI01
aa(lp95
I01
aI01
aI01
aI01
aI01
aI01
aI01
aI01
aI01
aI01
aI01
aI01
aI01
aI01
aI01
aI01
aasg49
I16
sbsS'layoutText'
p96
(lp97
S'%%%%%%%%%%%%%%%%%%%%%%%%%%%%%%%%'
p98
aS'%   %. %.%.%       %     %.%.%4%'
p99
aS'% % %%       %%  %   %%%   %.%2%'
p100
aS'% % %. % %%%    %%%% .%..% % % %'
p101
aS'% % %% % ..% %   %   %%%%% % % %'
p102
aS'% %    %%%%% %%%   %%%.% o % % %'
p103
aS'% %% % ..%.  %.%%%       %   % %'
p104
aS'% %. %%.%%%%        %.%%%%  %% %'
p105
aS'% %%  %%%%.%        %%%%.%% .% %'
p106
aS'% %   %       %%%.%  .%.. % %% %'
p107
aS'% % % o %.%%%   %%% %%%%%    % %'
p108
aS'% % % %%%%%   %   % %.. % %% % %'
p109
aS'% % % %..%. %%%%    %%% % .% % %'
p110
aS'%1%.%   %%%   %  %%       %% % %'
p111
aS'%3%.%.%     %       %.%.% .%   %'
p112
aS'%%%%%%%%%%%%%%%%%%%%%%%%%%%%%%%%'
p113
asbsS'blueTeamName'
p114
S'SquidInk'
p115
sS'actions'
p116
(lp117
(I1
S'South'
p118
tp119
a(I2
S'North'
p120
tp121
a(I3
g118
tp122
a(I0
g120
tp123
a(I1
g118
tp124
a(I2
g120
tp125
a(I3
g118
tp126
a(I0
g120
tp127
a(I1
g118
tp128
a(I2
g120
tp129
a(I3
g118
tp130
a(I0
g120
tp131
a(I1
g118
tp132
a(I2
g120
tp133
a(I3
g118
tp134
a(I0
g120
tp135
a(I1
g118
tp136
a(I2
g120
tp137
a(I3
g118
tp138
a(I0
g120
tp139
a(I1
g118
tp140
a(I2
g120
tp141
a(I3
g118
tp142
a(I0
g120
tp143
a(I1
g118
tp144
a(I2
g120
tp145
a(I3
g118
tp146
a(I0
g120
tp147
a(I1
g118
tp148
a(I2
g120
tp149
a(I3
g118
tp150
a(I0
g120
tp151
a(I1
g118
tp152
a(I2
g120
tp153
a(I3
g118
tp154
a(I0
g120
tp155
a(I1
g118
tp156
a(I2
g120
tp157
a(I3
g118
tp158
a(I0
g120
tp159
a(I1
g118
tp160
a(I2
g120
tp161
a(I3
g118
tp162
a(I0
g120
tp163
a(I1
g118
tp164
a(I2
g120
tp165
a(I3
g118
tp166
a(I0
g120
tp167
a(I1
S'West'
p168
tp169
a(I2
g120
tp170
a(I3
g118
tp171
a(I0
S'East'
p172
tp173
a(I1
g168
tp174
a(I2
g172
tp175
a(I3
g168
tp176
a(I0
g172
tp177
a(I1
g120
tp178
a(I2
g172
tp179
a(I3
g168
tp180
a(I0
g118
tp181
a(I1
g120
tp182
a(I2
g118
tp183
a(I3
g120
tp184
a(I0
g118
tp185
a(I1
g120
tp186
a(I2
g118
tp187
a(I3
g120
tp188
a(I0
g118
tp189
a(I1
g120
tp190
a(I2
g118
tp191
a(I3
g120
tp192
a(I0
g118
tp193
a(I1
g168
tp194
a(I2
g118
tp195
a(I3
g120
tp196
a(I0
g172
tp197
a(I1
g120
tp198
a(I2
g172
tp199
a(I3
g168
tp200
a(I0
g118
tp201
a(I1
g120
tp202
a(I2
g118
tp203
a(I3
g120
tp204
a(I0
g118
tp205
a(I1
g120
tp206
a(I2
g118
tp207
a(I3
g120
tp208
a(I0
g118
tp209
a(I1
g168
tp210
a(I2
g118
tp211
a(I3
g120
tp212
a(I0
g172
tp213
a(I1
g120
tp214
a(I2
g118
tp215
a(I3
g120
tp216
a(I0
g118
tp217
a(I1
g120
tp218
a(I2
g172
tp219
a(I3
g168
tp220
a(I0
g118
tp221
a(I1
g168
tp222
a(I2
g118
tp223
a(I3
g120
tp224
a(I0
g172
tp225
a(I1
g168
tp226
a(I2
g172
tp227
a(I3
g168
tp228
a(I0
g172
tp229
a(I1
g118
tp230
a(I2
g172
tp231
a(I3
g168
tp232
a(I0
g120
tp233
a(I1
g168
tp234
a(I2
g120
tp235
a(I3
g118
tp236
a(I0
g172
tp237
a(I1
g168
tp238
a(I2
g172
tp239
a(I3
g168
tp240
a(I0
g172
tp241
a(I1
g168
tp242
a(I2
g172
tp243
a(I3
g168
tp244
a(I0
g172
tp245
a(I1
g168
tp246
a(I2
g172
tp247
a(I3
g168
tp248
a(I0
g172
tp249
a(I1
g168
tp250
a(I2
g172
tp251
a(I3
g168
tp252
a(I0
g172
tp253
a(I1
g118
tp254
a(I2
g172
tp255
a(I3
g168
tp256
a(I0
g172
tp257
a(I1
g168
tp258
a(I2
g172
tp259
a(I3
g168
tp260
a(I0
g118
tp261
a(I1
g168
tp262
a(I2
g118
tp263
a(I3
g118
tp264
a(I0
g120
tp265
a(I1
g168
tp266
a(I2
g172
tp267
a(I3
g168
tp268
a(I0
g118
tp269
a(I1
g172
tp270
a(I2
g172
tp271
a(I3
g168
tp272
a(I0
g120
tp273
a(I1
g172
tp274
a(I2
g118
tp275
a(I3
g118
tp276
a(I0
g118
tp277
a(I1
g120
tp278
a(I2
g172
tp279
a(I3
g172
tp280
a(I0
g120
tp281
a(I1
g172
tp282
a(I2
g172
tp283
a(I3
g172
tp284
a(I0
g118
tp285
a(I1
g118
tp286
a(I2
g168
tp287
a(I3
g172
tp288
a(I0
g120
tp289
a(I1
g168
tp290
a(I2
g172
tp291
a(I3
g118
tp292
a(I0
g118
tp293
a(I1
g118
tp294
a(I2
g168
tp295
a(I3
g118
tp296
a(I0
g172
tp297
a(I1
g172
tp298
a(I2
g172
tp299
a(I3
g118
tp300
a(I0
g168
tp301
a(I1
g118
tp302
a(I2
g168
tp303
a(I3
g118
tp304
a(I0
g172
tp305
a(I1
g118
tp306
a(I2
g172
tp307
a(I3
g168
tp308
a(I0
g168
tp309
a(I1
g118
tp310
a(I2
g168
tp311
a(I3
g168
tp312
a(I0
g172
tp313
a(I1
g118
tp314
a(I2
g172
tp315
a(I3
g120
tp316
a(I0
g172
tp317
a(I1
g120
tp318
a(I2
g120
tp319
a(I3
g168
tp320
a(I0
g118
tp321
a(I1
g120
tp322
a(I2
g120
tp323
a(I3
g118
tp324
a(I0
g172
tp325
a(I1
g118
tp326
a(I2
g120
tp327
a(I3
g120
tp328
a(I0
g120
tp329
a(I1
g120
tp330
a(I2
g120
tp331
a(I3
g172
tp332
a(I0
g120
tp333
a(I1
g120
tp334
a(I2
g120
tp335
a(I3
g118
tp336
a(I0
g120
tp337
a(I1
g120
tp338
a(I2
g120
tp339
a(I3
g168
tp340
a(I0
g120
tp341
a(I1
g168
tp342
a(I2
g120
tp343
a(I3
g120
tp344
a(I0
g120
tp345
a(I1
g168
tp346
a(I2
g120
tp347
a(I3
g172
tp348
a(I0
g120
tp349
a(I1
g168
tp350
a(I2
g120
tp351
a(I3
g118
tp352
a(I0
g120
tp353
a(I1
g168
tp354
a(I2
g120
tp355
a(I3
g168
tp356
a(I0
g120
tp357
a(I1
g168
tp358
a(I2
g120
tp359
a(I3
g118
tp360
a(I0
g120
tp361
a(I1
g120
tp362
a(I2
g120
tp363
a(I3
g118
tp364
a(I0
g120
tp365
a(I1
g120
tp366
a(I2
g120
tp367
a(I3
g172
tp368
a(I0
g120
tp369
a(I1
g118
tp370
a(I2
g172
tp371
a(I3
g172
tp372
a(I0
g120
tp373
a(I1
g168
tp374
a(I2
g172
tp375
a(I3
g172
tp376
a(I0
g172
tp377
a(I1
g168
tp378
a(I2
g118
tp379
a(I3
g120
tp380
a(I0
g172
tp381
a(I1
g120
tp382
a(I2
g118
tp383
a(I3
g172
tp384
a(I0
g118
tp385
a(I1
g168
tp386
a(I2
g118
tp387
a(I3
g172
tp388
a(I0
g118
tp389
a(I1
g168
tp390
a(I2
g118
tp391
a(I3
g118
tp392
a(I0
g118
tp393
a(I1
g172
tp394
a(I2
g172
tp395
a(I3
g120
tp396
a(I0
g118
tp397
a(I1
g172
tp398
a(I2
g118
tp399
a(I3
g168
tp400
a(I0
g172
tp401
a(I1
g118
tp402
a(I2
g118
tp403
a(I3
g168
tp404
a(I0
g118
tp405
a(I1
g118
tp406
a(I2
g118
tp407
a(I3
g118
tp408
a(I0
g118
tp409
a(I1
g118
tp410
a(I2
g172
tp411
a(I3
g168
tp412
a(I0
g118
tp413
a(I1
g168
tp414
a(I2
g118
tp415
a(I3
g168
tp416
a(I0
g118
tp417
a(I1
g168
tp418
a(I2
g118
tp419
a(I3
g168
tp420
a(I0
g172
tp421
a(I1
g120
tp422
a(I2
g172
tp423
a(I3
g120
tp424
a(I0
g118
tp425
a(I1
g118
tp426
a(I2
g172
tp427
a(I3
g120
tp428
a(I0
g172
tp429
a(I1
g120
tp430
a(I2
g120
tp431
a(I3
g120
tp432
a(I0
g172
tp433
a(I1
g118
tp434
a(I2
g172
tp435
a(I3
g168
tp436
a(I0
g120
tp437
a(I1
g172
tp438
a(I2
g172
tp439
a(I3
g120
tp440
a(I0
g172
tp441
a(I1
g172
tp442
a(I2
g172
tp443
a(I3
g168
tp444
a(I0
g172
tp445
a(I1
g120
tp446
a(I2
g172
tp447
a(I3
g168
tp448
a(I0
g172
tp449
a(I1
g172
tp450
a(I2
g172
tp451
a(I3
g120
tp452
a(I0
g172
tp453
a(I1
g120
tp454
a(I2
g172
tp455
a(I3
g118
tp456
a(I0
g172
tp457
a(I1
g168
tp458
a(I2
g120
tp459
a(I3
g118
tp460
a(I0
g120
tp461
a(I1
g118
tp462
a(I2
g118
tp463
a(I3
g118
tp464
a(I0
g172
tp465
a(I1
g118
tp466
a(I2
g120
tp467
a(I3
g118
tp468
a(I0
g172
tp469
a(I1
g118
tp470
a(I2
g172
tp471
a(I3
g118
tp472
a(I0
g168
tp473
a(I1
g118
tp474
a(I2
g172
tp475
a(I3
g118
tp476
a(I0
g118
tp477
a(I1
g118
tp478
a(I2
g172
tp479
a(I3
g118
tp480
a(I0
g118
tp481
a(I1
g118
tp482
a(I2
g168
tp483
a(I3
g118
tp484
a(I0
g172
tp485
a(I1
g118
tp486
a(I2
g172
tp487
a(I3
g118
tp488
a(I0
g168
tp489
a(I1
g118
tp490
a(I2
g172
tp491
a(I3
g118
tp492
a(I0
g120
tp493
a(I1
g118
tp494
a(I2
g118
tp495
a(I3
g118
tp496
a(I0
g118
tp497
a(I1
g118
tp498
a(I2
g120
tp499
a(I3
g118
tp500
a(I0
g172
tp501
a(I1
g118
tp502
a(I2
g172
tp503
a(I3
g118
tp504
a(I0
g172
tp505
a(I1
g118
tp506
a(I2
g172
tp507
a(I3
g168
tp508
a(I0
g118
tp509
a(I1
g118
tp510
a(I2
g118
tp511
a(I3
g168
tp512
a(I0
g172
tp513
a(I1
g168
tp514
a(I2
g172
tp515
a(I3
g120
tp516
a(I0
g118
tp517
a(I1
g168
tp518
a(I2
g172
tp519
a(I3
g120
tp520
a(I0
g172
tp521
a(I1
g120
tp522
a(I2
g168
tp523
a(I3
g120
tp524
a(I0
g172
tp525
a(I1
g120
tp526
a(I2
g168
tp527
a(I3
g120
tp528
a(I0
g172
tp529
a(I1
g120
tp530
a(I2
g120
tp531
a(I3
g168
tp532
a(I0
g118
tp533
a(I1
g120
tp534
a(I2
g118
tp535
a(I3
g120
tp536
a(I0
g172
tp537
a(I1
g168
tp538
a(I2
g118
tp539
a(I3
g120
tp540
a(I0
g172
tp541
a(I1
g168
tp542
a(I2
g118
tp543
a(I3
g172
tp544
a(I0
g118
tp545
a(I1
g168
tp546
a(I2
g118
tp547
a(I3
g168
tp548
a(I0
g120
tp549
a(I1
g118
tp550
a(I2
g118
tp551
a(I3
g118
tp552
a(I0
g172
tp553
a(I1
g118
tp554
a(I2
g172
tp555
a(I3
g118
tp556
a(I0
g172
tp557
a(I1
g118
tp558
a(I2
g172
tp559
a(I3
g168
tp560
a(I0
g118
tp561
a(I1
g168
tp562
a(I2
g172
tp563
a(I3
g168
tp564
a(I0
g120
tp565
a(I1
g168
tp566
a(I2
g168
tp567
a(I3
g118
tp568
a(I0
g120
tp569
a(I1
g168
tp570
a(I2
g168
tp571
a(I3
g118
tp572
a(I0
g120
tp573
a(I1
g168
tp574
a(I2
g168
tp575
a(I3
g118
tp576
a(I0
g120
tp577
a(I1
g168
tp578
a(I2
g120
tp579
a(I3
g168
tp580
a(I0
g120
tp581
a(I1
g168
tp582
a(I2
g120
tp583
a(I3
g168
tp584
a(I0
g120
tp585
a(I1
g120
tp586
a(I2
g120
tp587
a(I3
g168
tp588
a(I0
g120
tp589
a(I1
g120
tp590
a(I2
g120
tp591
a(I3
g168
tp592
a(I0
g120
tp593
a(I1
g120
tp594
a(I2
g120
tp595
a(I3
g168
tp596
a(I0
g120
tp597
a(I1
g120
tp598
a(I2
g120
tp599
a(I3
g168
tp600
a(I0
g120
tp601
a(I1
g120
tp602
a(I2
g120
tp603
a(I3
g120
tp604
a(I0
g120
tp605
a(I1
g120
tp606
a(I2
g172
tp607
a(I3
g120
tp608
a(I0
g120
tp609
a(I1
g120
tp610
a(I2
g172
tp611
a(I3
g120
tp612
a(I0
g120
tp613
a(I1
g172
tp614
a(I2
g118
tp615
a(I3
g120
tp616
a(I0
g172
tp617
a(I1
g172
tp618
a(I2
g120
tp619
a(I3
g120
tp620
a(I0
g172
tp621
a(I1
g168
tp622
a(I2
g120
tp623
a(I3
g168
tp624
a(I0
g118
tp625
a(I1
g168
tp626
a(I2
g120
tp627
a(I3
g168
tp628
a(I0
g118
tp629
a(I1
g118
tp630
a(I2
g120
tp631
a(I3
g168
tp632
a(I0
g118
tp633
a(I1
g168
tp634
a(I2
g120
tp635
a(I3
g120
tp636
a(I0
g118
tp637
a(I1
g168
tp638
a(I2
g120
tp639
a(I3
g172
tp640
a(I0
g172
tp641
a(I1
g118
tp642
a(I2
g120
tp643
a(I3
g118
tp644
a(I0
g172
tp645
a(I1
g168
tp646
a(I2
g120
tp647
a(I3
g168
tp648
a(I0
g172
tp649
a(I1
g168
tp650
a(I2
g120
tp651
a(I3
g120
tp652
a(I0
g120
tp653
a(I1
g168
tp654
a(I2
g120
tp655
a(I3
g172
tp656
a(I0
g120
tp657
a(I1
g168
tp658
a(I2
g120
tp659
a(I3
g118
tp660
a(I0
g120
tp661
a(I1
g118
tp662
a(I2
g120
tp663
a(I3
g168
tp664
a(I0
g172
tp665
a(I1
g168
tp666
a(I2
g120
tp667
a(I3
g120
tp668
a(I0
g172
tp669
a(I1
g168
tp670
a(I2
g120
tp671
a(I3
g172
tp672
a(I0
g172
tp673
a(I1
g168
tp674
a(I2
g172
tp675
a(I3
g118
tp676
a(I0
g172
tp677
a(I1
g168
tp678
a(I2
g172
tp679
a(I3
g168
tp680
a(I0
g172
tp681
a(I1
g118
tp682
a(I2
g118
tp683
a(I3
g120
tp684
a(I0
g172
tp685
a(I1
g120
tp686
a(I2
g118
tp687
a(I3
g172
tp688
a(I0
g120
tp689
a(I1
g168
tp690
a(I2
g118
tp691
a(I3
g118
tp692
a(I0
g172
tp693
a(I1
g168
tp694
a(I2
g118
tp695
a(I3
g168
tp696
a(I0
g172
tp697
a(I1
g118
tp698
a(I2
g172
tp699
a(I3
g120
tp700
a(I0
g172
tp701
a(I1
g168
tp702
a(I2
g118
tp703
a(I3
g172
tp704
a(I0
g172
tp705
a(I1
g168
tp706
a(I2
g118
tp707
a(I3
g172
tp708
a(I0
g172
tp709
a(I1
g118
tp710
a(I2
g118
tp711
a(I3
g120
tp712
a(I0
g172
tp713
a(I1
g120
tp714
a(I2
g118
tp715
a(I3
g120
tp716
a(I0
g118
tp717
a(I1
g172
tp718
a(I2
g172
tp719
a(I3
g120
tp720
a(I0
g172
tp721
a(I1
g172
tp722
a(I2
g118
tp723
a(I3
g172
tp724
a(I0
g172
tp725
a(I1
g120
tp726
a(I2
g172
tp727
a(I3
g172
tp728
a(I0
g118
tp729
a(I1
g172
tp730
a(I2
g172
tp731
a(I3
g120
tp732
a(I0
g120
tp733
a(I1
g172
tp734
a(I2
g120
tp735
a(I3
g120
tp736
a(I0
g120
tp737
a(I1
g172
tp738
a(I2
g172
tp739
a(I3
g168
tp740
a(I0
g120
tp741
a(I1
g172
tp742
a(I2
g172
tp743
a(I3
g168
tp744
a(I0
g120
tp745
a(I1
g172
tp746
a(I2
g172
tp747
a(I3
g120
tp748
a(I0
g120
tp749
a(I1
g172
tp750
a(I2
g172
tp751
a(I3
g168
tp752
a(I0
g120
tp753
a(I1
g118
tp754
a(I2
g172
tp755
a(I3
g168
tp756
a(I0
g120
tp757
a(I1
g118
tp758
a(I2
g172
tp759
a(I3
g118
tp760
a(I0
g120
tp761
a(I1
g168
tp762
a(I2
g118
tp763
a(I3
g168
tp764
a(I0
g120
tp765
a(I1
g168
tp766
a(I2
g118
tp767
a(I3
g118
tp768
a(I0
g120
tp769
a(I1
g118
tp770
a(I2
g168
tp771
a(I3
g168
tp772
a(I0
g120
tp773
a(I1
g168
tp774
a(I2
g168
tp775
a(I3
g168
tp776
a(I0
g120
tp777
a(I1
S'Stop'
p778
tp779
a(I2
g118
tp780
a(I3
g168
tp781
a(I0
g172
tp782
a(I1
g172
tp783
a(I2
g120
tp784
a(I3
g120
tp785
a(I0
g172
tp786
a(I1
g118
tp787
a(I2
g120
tp788
a(I3
g168
tp789
a(I0
g118
tp790
a(I1
g118
tp791
a(I2
g120
tp792
a(I3
g168
tp793
a(I0
g118
tp794
a(I1
g168
tp795
a(I2
g120
tp796
a(I3
g168
tp797
a(I0
g118
tp798
a(I1
g168
tp799
a(I2
g120
tp800
a(I3
g168
tp801
a(I0
g118
tp802
a(I1
g168
tp803
a(I2
g120
tp804
a(I3
g168
tp805
a(I0
g172
tp806
a(I1
g168
tp807
a(I2
g120
tp808
a(I3
g168
tp809
a(I0
g172
tp810
a(I1
g172
tp811
a(I2
g120
tp812
a(I3
g118
tp813
a(I0
g172
tp814
a(I1
g172
tp815
a(I2
g120
tp816
a(I3
g118
tp817
a(I0
g120
tp818
a(I1
g168
tp819
a(I2
g120
tp820
a(I3
g118
tp821
a(I0
g120
tp822
a(I1
g168
tp823
a(I2
g120
tp824
a(I3
g118
tp825
a(I0
g120
tp826
a(I1
g120
tp827
a(I2
g120
tp828
a(I3
g118
tp829
a(I0
g172
tp830
a(I1
g120
tp831
a(I2
g120
tp832
a(I3
g118
tp833
a(I0
g172
tp834
a(I1
g172
tp835
a(I2
g172
tp836
a(I3
g118
tp837
a(I0
g172
tp838
a(I1
g168
tp839
a(I2
g172
tp840
a(I3
g118
tp841
a(I0
g172
tp842
a(I1
g118
tp843
a(I2
g118
tp844
a(I3
g118
tp845
a(I0
g172
tp846
a(I1
g168
tp847
a(I2
g118
tp848
a(I3
g118
tp849
a(I0
g172
tp850
a(I1
g168
tp851
a(I2
g118
tp852
a(I3
g118
tp853
a(I0
g118
tp854
a(I1
g118
tp855
a(I2
g118
tp856
a(I3
g118
tp857
a(I0
g172
tp858
a(I1
g120
tp859
a(I2
g172
tp860
a(I3
g118
tp861
a(I0
g172
tp862
a(I1
g120
tp863
a(I2
g172
tp864
a(I3
g118
tp865
a(I0
g118
tp866
a(I1
g120
tp867
a(I2
g172
tp868
a(I3
g118
tp869
a(I0
g172
tp870
a(I1
g120
tp871
a(I2
g120
tp872
a(I3
g168
tp873
a(I0
g172
tp874
a(I1
g120
tp875
a(I2
g120
tp876
a(I3
g168
tp877
a(I0
g118
tp878
a(I1
g168
tp879
a(I2
g120
tp880
a(I3
g120
tp881
a(I0
g172
tp882
a(I1
g120
tp883
a(I2
g172
tp884
a(I3
g120
tp885
a(I0
g172
tp886
a(I1
g120
tp887
a(I2
g172
tp888
a(I3
g120
tp889
a(I0
g120
tp890
a(I1
g168
tp891
a(I2
g172
tp892
a(I3
g120
tp893
a(I0
g172
tp894
a(I1
g172
tp895
a(I2
g172
tp896
a(I3
g168
tp897
a(I0
g172
tp898
a(I1
g120
tp899
a(I2
g172
tp900
a(I3
g120
tp901
a(I0
g120
tp902
a(I1
g120
tp903
a(I2
g172
tp904
a(I3
g120
tp905
a(I0
g172
tp906
a(I1
g172
tp907
a(I2
g118
tp908
a(I3
g172
tp909
a(I0
g168
tp910
a(I1
g172
tp911
a(I2
g118
tp912
a(I3
g168
tp913
a(I0
g120
tp914
a(I1
g118
tp915
a(I2
g118
tp916
a(I3
g118
tp917
a(I0
g120
tp918
a(I1
g172
tp919
a(I2
g118
tp920
a(I3
g118
tp921
a(I0
g172
tp922
a(I1
g172
tp923
a(I2
g118
tp924
a(I3
g168
tp925
a(I0
g172
tp926
a(I1
g168
tp927
a(I2
g172
tp928
a(I3
g168
tp929
a(I0
g172
tp930
a(I1
g118
tp931
a(I2
g172
tp932
a(I3
g120
tp933
a(I0
g172
tp934
a(I1
g120
tp935
a(I2
g172
tp936
a(I3
g168
tp937
a(I0
g118
tp938
a(I1
g168
tp939
a(I2
g172
tp940
a(I3
g120
tp941
a(I0
g118
tp942
a(I1
g120
tp943
a(I2
g172
tp944
a(I3
g118
tp945
a(I0
g168
tp946
a(I1
g120
tp947
a(I2
g172
tp948
a(I3
g168
tp949
a(I0
g172
tp950
a(I1
g120
tp951
a(I2
g120
tp952
a(I3
g172
tp953
a(I0
g120
tp954
a(I1
g168
tp955
a(I2
g172
tp956
a(I3
g120
tp957
a(I0
g172
tp958
a(I1
g172
tp959
a(I2
g172
tp960
a(I3
g118
tp961
a(I0
g172
tp962
a(I1
g120
tp963
a(I2
g172
tp964
a(I3
g168
tp965
a(I0
g120
tp966
a(I1
g172
tp967
a(I2
g172
tp968
a(I3
g172
tp969
a(I0
g118
tp970
a(I1
g172
tp971
a(I2
g120
tp972
a(I3
g120
tp973
a(I0
g118
tp974
a(I1
g172
tp975
a(I2
g118
tp976
a(I3
g118
tp977
a(I0
g118
tp978
a(I1
g172
tp979
a(I2
g172
tp980
a(I3
g172
tp981
a(I0
g118
tp982
a(I1
g172
tp983
a(I2
g172
tp984
a(I3
g118
tp985
a(I0
g118
tp986
a(I1
g172
tp987
a(I2
g120
tp988
a(I3
g172
tp989
a(I0
g118
tp990
a(I1
g118
tp991
a(I2
g172
tp992
a(I3
g172
tp993
a(I0
g172
tp994
a(I1
g172
tp995
a(I2
g172
tp996
a(I3
g172
tp997
a(I0
g118
tp998
a(I1
g172
tp999
a(I2
g118
tp1000
a(I3
g118
tp1001
a(I0
g172
tp1002
a(I1
g172
tp1003
a(I2
g172
tp1004
a(I3
g118
tp1005
a(I0
g168
tp1006
a(I1
g118
tp1007
a(I2
g172
tp1008
a(I3
g118
tp1009
a(I0
g118
tp1010
a(I1
g172
tp1011
a(I2
g120
tp1012
a(I3
g118
tp1013
a(I0
g120
tp1014
a(I1
g168
tp1015
a(I2
g120
tp1016
a(I3
g172
tp1017
a(I0
g120
tp1018
a(I1
g168
tp1019
a(I2
g120
tp1020
a(I3
g172
tp1021
a(I0
g120
tp1022
a(I1
g120
tp1023
a(I2
g120
tp1024
a(I3
g120
tp1025
a(I0
g172
tp1026
a(I1
g168
tp1027
a(I2
g120
tp1028
a(I3
g120
tp1029
a(I0
g120
tp1030
a(I1
g168
tp1031
a(I2
g118
tp1032
a(I3
g120
tp1033
a(I0
g118
tp1034
a(I1
g120
tp1035
a(I2
g118
tp1036
a(I3
g120
tp1037
a(I0
g168
tp1038
a(I1
g168
tp1039
a(I2
g118
tp1040
a(I3
g120
tp1041
a(I0
g118
tp1042
a(I1
g172
tp1043
a(I2
g118
tp1044
a(I3
g120
tp1045
a(I0
g118
tp1046
a(I1
g118
tp1047
a(I2
g118
tp1048
a(I3
g120
tp1049
a(I0
g118
tp1050
a(I1
g172
tp1051
a(I2
g168
tp1052
a(I3
g120
tp1053
a(I0
g118
tp1054
a(I1
g172
tp1055
a(I2
g118
tp1056
a(I3
g120
tp1057
a(I0
g168
tp1058
a(I1
g172
tp1059
a(I2
g118
tp1060
a(I3
g120
tp1061
a(I0
g168
tp1062
a(I1
g168
tp1063
a(I2
g118
tp1064
a(I3
g120
tp1065
a(I0
g120
tp1066
a(I1
g168
tp1067
a(I2
g118
tp1068
a(I3
g120
tp1069
a(I0
g168
tp1070
a(I1
g168
tp1071
a(I2
g168
tp1072
a(I3
g120
tp1073
a(I0
g168
tp1074
a(I1
g120
tp1075
a(I2
g168
tp1076
a(I3
g118
tp1077
a(I0
g172
tp1078
a(I1
g168
tp1079
a(I2
g118
tp1080
a(I3
g118
tp1081
a(I0
g120
tp1082
a(I1
g168
tp1083
a(I2
g118
tp1084
a(I3
g118
tp1085
a(I0
g118
tp1086
a(I1
g120
tp1087
a(I2
g172
tp1088
a(I3
g118
tp1089
a(I0
g172
tp1090
a(I1
g118
tp1091
a(I2
g168
tp1092
a(I3
g118
tp1093
a(I0
g118
tp1094
a(I1
g168
tp1095
a(I2
g118
tp1096
a(I3
g118
tp1097
a(I0
g118
tp1098
a(I1
g168
tp1099
a(I2
g118
tp1100
a(I3
g118
tp1101
a(I0
g118
tp1102
a(I1
g120
tp1103
a(I2
g172
tp1104
asS'length'
p1105
I1200
sS'agents'
p1106
(lp1107
(igame
Agent
p1108
(dp1109
S'index'
p1110
I0
sba(igame
Agent
p1111
(dp1112
g1110
I0
sba(igame
Agent
p1113
(dp1114
g1110
I0
sba(igame
Agent
p1115
(dp1116
g1110
I0
sbasS'redTeamName'
p1117
S'JK'
p1118
s.