(dp1
S'layout'
p2
(ilayout
Layout
p3
(dp4
S'capsules'
p5
(lp6
(I6
I5
tp7
a(I25
I10
tp8
asS'numGhosts'
p9
I4
sS'food'
p10
(igame
Grid
p11
(dp12
S'CELLS_PER_INT'
p13
I30
sS'width'
p14
I32
sS'data'
p15
(lp16
(lp17
I00
aI00
aI00
aI00
aI00
aI00
aI00
aI00
aI00
aI00
aI00
aI00
aI00
aI00
aI00
aI00
aa(lp18
I00
aI00
aI00
aI00
aI00
aI00
aI00
aI00
aI00
aI00
aI00
aI00
aI00
aI00
aI00
aI00
aa(lp19
I00
aI00
aI00
aI00
aI00
aI00
aI00
aI00
aI00
aI00
aI00
aI00
aI00
aI00
aI00
aI00
aa(lp20
I00
aI01
aI01
aI00
aI00
aI00
aI00
aI00
aI01
aI00
aI00
aI00
aI00
aI00
aI00
aI00
aa(lp21
I00
aI00
aI00
aI00
aI00
aI00
aI00
aI00
aI00
aI00
aI00
aI00
aI00
aI00
aI00
aI00
aa(lp22
I00
aI01
aI00
aI00
aI00
aI00
aI00
aI00
aI00
aI00
aI00
aI00
aI01
aI00
aI01
aI00
aa(lp23
I00
aI00
aI00
aI00
aI00
aI00
aI00
aI00
aI00
aI00
aI00
aI00
aI00
aI00
aI00
aI00
aa(lp24
I00
aI00
aI00
aI01
aI00
aI00
aI00
aI00
aI01
aI01
aI00
aI00
aI00
aI00
aI00
aI00
aa(lp25
I00
aI00
aI00
aI01
aI00
aI00
aI00
aI00
aI00
aI01
aI00
aI00
aI00
aI00
aI01
aI00
aa(lp26
I00
aI00
aI00
aI00
aI00
aI01
aI00
aI00
aI00
aI00
aI00
aI01
aI00
aI00
aI00
aI00
aa(lp27
I00
aI00
aI00
aI01
aI00
aI00
aI00
aI01
aI00
aI01
aI00
aI01
aI00
aI00
aI01
aI00
aa(lp28
I00
aI00
aI00
aI00
aI00
aI00
aI00
aI00
aI00
aI00
aI00
aI00
aI00
aI00
aI00
aI00
aa(lp29
I00
aI00
aI00
aI00
aI00
aI00
aI00
aI00
aI00
aI00
aI00
aI00
aI00
aI00
aI00
aI00
aa(lp30
I00
aI00
aI00
aI00
aI00
aI00
aI00
aI00
aI00
aI00
aI00
aI00
aI00
aI00
aI00
aI00
aa(lp31
I00
aI00
aI00
aI00
aI00
aI00
aI00
aI00
aI00
aI01
aI00
aI00
aI00
aI00
aI00
aI00
aa(lp32
I00
aI00
aI00
aI00
aI00
aI00
aI00
aI00
aI00
aI00
aI00
aI00
aI00
aI00
aI00
aI00
aa(lp33
I00
aI00
aI00
aI00
aI00
aI00
aI00
aI00
aI00
aI00
aI00
aI00
aI00
aI00
aI00
aI00
aa(lp34
I00
aI00
aI00
aI00
aI00
aI00
aI01
aI00
aI00
aI00
aI00
aI00
aI00
aI00
aI00
aI00
aa(lp35
I00
aI00
aI00
aI00
aI00
aI00
aI00
aI00
aI00
aI00
aI00
aI00
aI00
aI00
aI00
aI00
aa(lp36
I00
aI00
aI00
aI00
aI00
aI00
aI00
aI00
aI00
aI00
aI00
aI00
aI00
aI00
aI00
aI00
aa(lp37
I00
aI00
aI00
aI00
aI00
aI00
aI00
aI00
aI00
aI00
aI00
aI00
aI00
aI00
aI00
aI00
aa(lp38
I00
aI01
aI00
aI00
aI01
aI00
aI01
aI00
aI01
aI00
aI00
aI00
aI01
aI00
aI00
aI00
aa(lp39
I00
aI00
aI00
aI00
aI01
aI00
aI00
aI00
aI00
aI00
aI01
aI00
aI00
aI00
aI00
aI00
aa(lp40
I00
aI01
aI00
aI00
aI00
aI00
aI01
aI00
aI00
aI00
aI00
aI00
aI01
aI00
aI00
aI00
aa(lp41
I00
aI00
aI00
aI00
aI00
aI00
aI01
aI01
aI00
aI00
aI00
aI00
aI01
aI00
aI00
aI00
aa(lp42
I00
aI00
aI00
aI00
aI00
aI00
aI00
aI00
aI00
aI00
aI00
aI00
aI00
aI00
aI00
aI00
aa(lp43
I00
aI01
aI00
aI01
aI00
aI00
aI00
aI00
aI00
aI00
aI00
aI00
aI00
aI00
aI01
aI00
aa(lp44
I00
aI00
aI00
aI00
aI00
aI00
aI00
aI00
aI00
aI00
aI00
aI00
aI00
aI00
aI00
aI00
aa(lp45
I00
aI00
aI00
aI00
aI00
aI00
aI00
aI01
aI00
aI00
aI00
aI00
aI00
aI01
aI01
aI00
aa(lp46
I00
aI00
aI00
aI00
aI00
aI00
aI00
aI00
aI00
aI00
aI00
aI00
aI00
aI00
aI00
aI00
aa(lp47
I00
aI00
aI00
aI00
aI00
aI00
aI00
aI00
aI00
aI00
aI00
aI00
aI00
aI00
aI00
aI00
aa(lp48
I00
aI00
aI00
aI00
aI00
aI00
aI00
aI00
aI00
aI00
aI00
aI00
aI00
aI00
aI00
aI00
aasS'height'
p49
I16
sbsS'agentPositions'
p50
(lp51
(I00
(I1
I2
tp52
tp53
a(I00
(I30
I13
tp54
tp55
a(I00
(I1
I1
tp56
tp57
a(I00
(I30
I14
tp58
tp59
asg49
I16
sg14
I32
sS'walls'
p60
(igame
Grid
p61
(dp62
g13
I30
sg14
I32
sg15
(lp63
(lp64
I01
aI01
aI01
aI01
aI01
aI01
aI01
aI01
aI01
aI01
aI01
aI01
aI01
aI01
aI01
aI01
aa(lp65
I01
aI00
aI00
aI00
aI00
aI00
aI00
aI00
aI00
aI00
aI00
aI00
aI00
aI00
aI00
aI01
aa(lp66
I01
aI01
aI01
aI01
aI01
aI01
aI01
aI01
aI01
aI01
aI01
aI01
aI01
aI01
aI00
aI01
aa(lp67
I01
aI00
aI00
aI00
aI00
aI00
aI00
aI01
aI00
aI01
aI00
aI00
aI00
aI00
aI00
aI01
aa(lp68
I01
aI01
aI01
aI01
aI01
aI01
aI00
aI00
aI00
aI00
aI00
aI01
aI01
aI01
aI01
aI01
aa(lp69
I01
aI00
aI00
aI00
aI00
aI00
aI00
aI00
aI01
aI01
aI00
aI01
aI00
aI01
aI00
aI01
aa(lp70
I01
aI01
aI00
aI01
aI01
aI00
aI01
aI01
aI01
aI00
aI00
aI00
aI00
aI00
aI00
aI01
aa(lp71
I01
aI00
aI00
aI00
aI01
aI00
aI00
aI01
aI00
aI00
aI01
aI01
aI01
aI00
aI01
aI01
aa(lp72
I01
aI00
aI01
aI00
aI01
aI01
aI00
aI01
aI01
aI00
aI01
aI00
aI00
aI00
aI00
aI01
aa(lp73
I01
aI00
aI01
aI01
aI01
aI00
aI00
aI01
aI01
aI01
aI01
aI00
aI01
aI00
aI01
aI01
aa(lp74
I01
aI00
aI01
aI00
aI01
aI01
aI00
aI00
aI01
aI00
aI01
aI00
aI01
aI00
aI00
aI01
aa(lp75
I01
aI00
aI00
aI00
aI00
aI01
aI00
aI01
aI01
aI00
aI01
aI01
aI01
aI00
aI01
aI01
aa(lp76
I01
aI01
aI00
aI01
aI00
aI01
aI00
aI00
aI00
aI00
aI00
aI00
aI00
aI00
aI00
aI01
aa(lp77
I01
aI00
aI00
aI01
aI00
aI00
aI00
aI00
aI00
aI01
aI01
aI01
aI00
aI01
aI00
aI01
aa(lp78
I01
aI00
aI01
aI01
aI01
aI00
aI01
aI00
aI00
aI00
aI01
aI00
aI00
aI01
aI00
aI01
aa(lp79
I01
aI00
aI00
aI01
aI00
aI00
aI01
aI00
aI00
aI01
aI01
aI00
aI00
aI00
aI00
aI01
aa(lp80
I01
aI00
aI00
aI00
aI00
aI01
aI01
aI00
aI00
aI01
aI00
aI00
aI01
aI00
aI00
aI01
aa(lp81
I01
aI00
aI01
aI00
aI00
aI01
aI00
aI00
aI00
aI01
aI00
aI01
aI01
aI01
aI00
aI01
aa(lp82
I01
aI00
aI01
aI00
aI01
aI01
aI01
aI00
aI00
aI00
aI00
aI00
aI01
aI00
aI00
aI01
aa(lp83
I01
aI00
aI00
aI00
aI00
aI00
aI00
aI00
aI00
aI00
aI01
aI00
aI01
aI00
aI01
aI01
aa(lp84
I01
aI01
aI00
aI01
aI01
aI01
aI00
aI01
aI01
aI00
aI01
aI00
aI00
aI00
aI00
aI01
aa(lp85
I01
aI00
aI00
aI01
aI00
aI01
aI00
aI01
aI00
aI00
aI01
aI01
aI00
aI01
aI00
aI01
aa(lp86
I01
aI01
aI00
aI01
aI00
aI01
aI01
aI01
aI01
aI00
aI00
aI01
aI01
aI01
aI00
aI01
aa(lp87
I01
aI00
aI00
aI00
aI00
aI01
aI00
aI01
aI01
aI00
aI01
aI01
aI00
aI01
aI00
aI01
aa(lp88
I01
aI01
aI00
aI01
aI01
aI01
aI00
aI00
aI01
aI00
aI00
aI01
aI00
aI00
aI00
aI01
aa(lp89
I01
aI00
aI00
aI00
aI00
aI00
aI00
aI01
aI01
aI01
aI00
aI01
aI01
aI00
aI01
aI01
aa(lp90
I01
aI00
aI01
aI00
aI01
aI00
aI01
aI01
aI00
aI00
aI00
aI00
aI00
aI00
aI00
aI01
aa(lp91
I01
aI01
aI01
aI01
aI01
aI00
aI00
aI00
aI00
aI00
aI01
aI01
aI01
aI01
aI01
aI01
aa(lp92
I01
aI00
aI00
aI00
aI00
aI00
aI01
aI00
aI01
aI00
aI00
aI00
aI00
aI00
aI00
aI01
aa(lp93
I01
aI00
aI01
aI01
aI01
aI01
aI01
aI01
aI01
aI01
aI01
aI01
aI01
aI01
aI01
aI01
aa(lp94
I01
aI00
aI00
aI00
aI00
aI00
aI00
aI00
aI00
aI00
aI00
aI00
aI00
aI00
aI00
aI01
aa(lp95
I01
aI01
aI01
aI01
aI01
aI01
aI01
aI01
aI01
aI01
aI01
aI01
aI01
aI01
aI01
aI01
aasg49
I16
sbsS'layoutText'
p96
(lp97
S'%%%%%%%%%%%%%%%%%%%%%%%%%%%%%%%%'
p98
aS'%   %. %.%.%       %     %.%.%4%'
p99
aS'% % %%       %%  %   %%%   %.%2%'
p100
aS'% % %. % %%%    %%%% .%..% % % %'
p101
aS'% % %% % ..% %   %   %%%%% % % %'
p102
aS'% %    %%%%% %%%   %%%.% o % % %'
p103
aS'% %% % ..%.  %.%%%       %   % %'
p104
aS'% %. %%.%%%%        %.%%%%  %% %'
p105
aS'% %%  %%%%.%        %%%%.%% .% %'
p106
aS'% %   %       %%%.%  .%.. % %% %'
p107
aS'% % % o %.%%%   %%% %%%%%    % %'
p108
aS'% % % %%%%%   %   % %.. % %% % %'
p109
aS'% % % %..%. %%%%    %%% % .% % %'
p110
aS'%1%.%   %%%   %  %%       %% % %'
p111
aS'%3%.%.%     %       %.%.% .%   %'
p112
aS'%%%%%%%%%%%%%%%%%%%%%%%%%%%%%%%%'
p113
asbsS'blueTeamName'
p114
S'SquidInk'
p115
sS'actions'
p116
(lp117
(I1
S'South'
p118
tp119
a(I2
S'North'
p120
tp121
a(I3
g118
tp122
a(I0
g120
tp123
a(I1
g118
tp124
a(I2
g120
tp125
a(I3
g118
tp126
a(I0
g120
tp127
a(I1
g118
tp128
a(I2
g120
tp129
a(I3
g118
tp130
a(I0
g120
tp131
a(I1
g118
tp132
a(I2
g120
tp133
a(I3
g118
tp134
a(I0
g120
tp135
a(I1
g118
tp136
a(I2
g120
tp137
a(I3
g118
tp138
a(I0
g120
tp139
a(I1
g118
tp140
a(I2
g120
tp141
a(I3
g118
tp142
a(I0
g120
tp143
a(I1
g118
tp144
a(I2
g120
tp145
a(I3
g118
tp146
a(I0
g120
tp147
a(I1
g118
tp148
a(I2
g120
tp149
a(I3
g118
tp150
a(I0
g120
tp151
a(I1
g118
tp152
a(I2
g120
tp153
a(I3
g118
tp154
a(I0
g120
tp155
a(I1
g118
tp156
a(I2
g120
tp157
a(I3
g118
tp158
a(I0
g120
tp159
a(I1
g118
tp160
a(I2
g120
tp161
a(I3
g118
tp162
a(I0
g120
tp163
a(I1
g118
tp164
a(I2
g120
tp165
a(I3
g118
tp166
a(I0
g120
tp167
a(I1
S'West'
p168
tp169
a(I2
g120
tp170
a(I3
g118
tp171
a(I0
S'East'
p172
tp173
a(I1
g168
tp174
a(I2
g172
tp175
a(I3
g168
tp176
a(I0
g172
tp177
a(I1
g120
tp178
a(I2
g172
tp179
a(I3
g168
tp180
a(I0
g118
tp181
a(I1
g120
tp182
a(I2
g118
tp183
a(I3
g120
tp184
a(I0
g118
tp185
a(I1
g120
tp186
a(I2
g118
tp187
a(I3
g120
tp188
a(I0
g118
tp189
a(I1
g120
tp190
a(I2
g118
tp191
a(I3
g120
tp192
a(I0
g118
tp193
a(I1
g168
tp194
a(I2
g118
tp195
a(I3
g120
tp196
a(I0
g172
tp197
a(I1
g120
tp198
a(I2
g172
tp199
a(I3
g168
tp200
a(I0
g118
tp201
a(I1
g120
tp202
a(I2
g118
tp203
a(I3
g120
tp204
a(I0
g118
tp205
a(I1
g120
tp206
a(I2
g118
tp207
a(I3
g120
tp208
a(I0
g120
tp209
a(I1
g168
tp210
a(I2
g118
tp211
a(I3
g120
tp212
a(I0
g118
tp213
a(I1
g120
tp214
a(I2
g118
tp215
a(I3
g120
tp216
a(I0
g120
tp217
a(I1
g120
tp218
a(I2
g172
tp219
a(I3
g168
tp220
a(I0
g120
tp221
a(I1
g168
tp222
a(I2
g118
tp223
a(I3
g120
tp224
a(I0
g118
tp225
a(I1
g168
tp226
a(I2
g172
tp227
a(I3
g168
tp228
a(I0
g120
tp229
a(I1
g118
tp230
a(I2
g172
tp231
a(I3
g168
tp232
a(I0
g118
tp233
a(I1
g168
tp234
a(I2
g120
tp235
a(I3
g118
tp236
a(I0
g120
tp237
a(I1
g168
tp238
a(I2
g172
tp239
a(I3
g168
tp240
a(I0
g118
tp241
a(I1
g168
tp242
a(I2
g172
tp243
a(I3
g168
tp244
a(I0
g118
tp245
a(I1
g168
tp246
a(I2
g172
tp247
a(I3
g168
tp248
a(I0
g118
tp249
a(I1
g168
tp250
a(I2
g172
tp251
a(I3
g168
tp252
a(I0
g120
tp253
a(I1
g168
tp254
a(I2
g172
tp255
a(I3
g168
tp256
a(I0
g120
tp257
a(I1
g118
tp258
a(I2
g172
tp259
a(I3
g118
tp260
a(I0
g118
tp261
a(I1
g168
tp262
a(I2
g120
tp263
a(I3
g168
tp264
a(I0
g118
tp265
a(I1
g172
tp266
a(I2
g118
tp267
a(I3
g168
tp268
a(I0
g120
tp269
a(I1
g168
tp270
a(I2
g118
tp271
a(I3
g168
tp272
a(I0
g120
tp273
a(I1
g168
tp274
a(I2
g120
tp275
a(I3
g118
tp276
a(I0
g118
tp277
a(I1
g172
tp278
a(I2
g120
tp279
a(I3
g168
tp280
a(I0
g120
tp281
a(I1
g172
tp282
a(I2
g172
tp283
a(I3
g120
tp284
a(I0
g120
tp285
a(I1
g120
tp286
a(I2
g120
tp287
a(I3
g172
tp288
a(I0
g172
tp289
a(I1
g120
tp290
a(I2
g118
tp291
a(I3
g118
tp292
a(I0
g172
tp293
a(I1
g120
tp294
a(I2
g168
tp295
a(I3
g168
tp296
a(I0
g120
tp297
a(I1
g172
tp298
a(I2
g172
tp299
a(I3
g120
tp300
a(I0
g120
tp301
a(I1
g172
tp302
a(I2
g172
tp303
a(I3
g172
tp304
a(I0
g120
tp305
a(I1
g120
tp306
a(I2
g172
tp307
a(I3
g118
tp308
a(I0
g172
tp309
a(I1
g118
tp310
a(I2
g120
tp311
a(I3
g172
tp312
a(I0
g172
tp313
a(I1
g168
tp314
a(I2
g120
tp315
a(I3
g120
tp316
a(I0
g172
tp317
a(I1
g168
tp318
a(I2
g120
tp319
a(I3
g168
tp320
a(I0
g172
tp321
a(I1
g118
tp322
a(I2
g120
tp323
a(I3
g118
tp324
a(I0
g172
tp325
a(I1
g118
tp326
a(I2
g120
tp327
a(I3
g172
tp328
a(I0
g172
tp329
a(I1
g118
tp330
a(I2
g120
tp331
a(I3
g120
tp332
a(I0
g118
tp333
a(I1
g168
tp334
a(I2
g120
tp335
a(I3
g168
tp336
a(I0
g172
tp337
a(I1
g168
tp338
a(I2
g120
tp339
a(I3
g118
tp340
a(I0
g172
tp341
a(I1
g168
tp342
a(I2
g120
tp343
a(I3
g172
tp344
a(I0
g168
tp345
a(I1
g168
tp346
a(I2
g120
tp347
a(I3
g120
tp348
a(I0
g168
tp349
a(I1
g120
tp350
a(I2
g120
tp351
a(I3
g168
tp352
a(I0
g118
tp353
a(I1
g118
tp354
a(I2
g120
tp355
a(I3
g168
tp356
a(I0
g118
tp357
a(I1
g118
tp358
a(I2
g120
tp359
a(I3
g168
tp360
a(I0
g118
tp361
a(I1
g172
tp362
a(I2
g172
tp363
a(I3
g168
tp364
a(I0
g118
tp365
a(I1
g172
tp366
a(I2
g172
tp367
a(I3
g118
tp368
a(I0
g118
tp369
a(I1
g120
tp370
a(I2
g118
tp371
a(I3
g118
tp372
a(I0
g172
tp373
a(I1
g172
tp374
a(I2
g118
tp375
a(I3
g168
tp376
a(I0
g118
tp377
a(I1
g172
tp378
a(I2
g118
tp379
a(I3
g168
tp380
a(I0
g168
tp381
a(I1
g120
tp382
a(I2
g118
tp383
a(I3
g168
tp384
a(I0
g168
tp385
a(I1
g172
tp386
a(I2
g172
tp387
a(I3
g168
tp388
a(I0
g168
tp389
a(I1
g172
tp390
a(I2
g118
tp391
a(I3
g168
tp392
a(I0
g168
tp393
a(I1
g172
tp394
a(I2
g118
tp395
a(I3
g168
tp396
a(I0
g168
tp397
a(I1
g118
tp398
a(I2
g118
tp399
a(I3
g118
tp400
a(I0
g168
tp401
a(I1
g120
tp402
a(I2
g172
tp403
a(I3
g168
tp404
a(I0
g118
tp405
a(I1
g168
tp406
a(I2
g118
tp407
a(I3
g168
tp408
a(I0
g168
tp409
a(I1
g168
tp410
a(I2
g168
tp411
a(I3
g118
tp412
a(I0
g168
tp413
a(I1
g168
tp414
a(I2
g172
tp415
a(I3
g118
tp416
a(I0
g118
tp417
a(I1
g172
tp418
a(I2
g118
tp419
a(I3
g118
tp420
a(I0
g118
tp421
a(I1
g118
tp422
a(I2
g118
tp423
a(I3
g172
tp424
a(I0
g118
tp425
a(I1
g168
tp426
a(I2
g118
tp427
a(I3
g172
tp428
a(I0
g172
tp429
a(I1
g120
tp430
a(I2
g118
tp431
a(I3
g120
tp432
a(I0
g172
tp433
a(I1
g118
tp434
a(I2
g172
tp435
a(I3
g172
tp436
a(I0
g120
tp437
a(I1
g168
tp438
a(I2
g172
tp439
a(I3
S'Stop'
p440
tp441
a(I0
g118
tp442
a(I1
g172
tp443
a(I2
g120
tp444
a(I3
g440
tp445
a(I0
g120
tp446
a(I1
g172
tp447
a(I2
g118
tp448
a(I3
g440
tp449
a(I0
g118
tp450
a(I1
g120
tp451
a(I2
g120
tp452
a(I3
g440
tp453
a(I0
g120
tp454
a(I1
g172
tp455
a(I2
g118
tp456
a(I3
g440
tp457
a(I0
g118
tp458
a(I1
g172
tp459
a(I2
g120
tp460
a(I3
g440
tp461
a(I0
g120
tp462
a(I1
g172
tp463
a(I2
g118
tp464
a(I3
g440
tp465
a(I0
g118
tp466
a(I1
g168
tp467
a(I2
g120
tp468
a(I3
g440
tp469
a(I0
g120
tp470
a(I1
g118
tp471
a(I2
g118
tp472
a(I3
g440
tp473
a(I0
g118
tp474
a(I1
g120
tp475
a(I2
g120
tp476
a(I3
g440
tp477
a(I0
g120
tp478
a(I1
g168
tp479
a(I2
g118
tp480
a(I3
g440
tp481
a(I0
g118
tp482
a(I1
g172
tp483
a(I2
g120
tp484
a(I3
g440
tp485
a(I0
g120
tp486
a(I1
g168
tp487
a(I2
g118
tp488
a(I3
g440
tp489
a(I0
g118
tp490
a(I1
g168
tp491
a(I2
g120
tp492
a(I3
g440
tp493
a(I0
g120
tp494
a(I1
g172
tp495
a(I2
g118
tp496
a(I3
g440
tp497
a(I0
g118
tp498
a(I1
g168
tp499
a(I2
g120
tp500
a(I3
g440
tp501
a(I0
g120
tp502
a(I1
g118
tp503
a(I2
g118
tp504
a(I3
g440
tp505
a(I0
g118
tp506
a(I1
g168
tp507
a(I2
g120
tp508
a(I3
g440
tp509
a(I0
g120
tp510
a(I1
g120
tp511
a(I2
g118
tp512
a(I3
g440
tp513
a(I0
g118
tp514
a(I1
g172
tp515
a(I2
g120
tp516
a(I3
g440
tp517
a(I0
g120
tp518
a(I1
g118
tp519
a(I2
g118
tp520
a(I3
g440
tp521
a(I0
g118
tp522
a(I1
g120
tp523
a(I2
g120
tp524
a(I3
g440
tp525
a(I0
g120
tp526
a(I1
g172
tp527
a(I2
g118
tp528
a(I3
g440
tp529
a(I0
g118
tp530
a(I1
g168
tp531
a(I2
g120
tp532
a(I3
g440
tp533
a(I0
g120
tp534
a(I1
g118
tp535
a(I2
g118
tp536
a(I3
g440
tp537
a(I0
g118
tp538
a(I1
g168
tp539
a(I2
g120
tp540
a(I3
g440
tp541
a(I0
g120
tp542
a(I1
g120
tp543
a(I2
g118
tp544
a(I3
g440
tp545
a(I0
g118
tp546
a(I1
g120
tp547
a(I2
g120
tp548
a(I3
g440
tp549
a(I0
g120
tp550
a(I1
g168
tp551
a(I2
g118
tp552
a(I3
g440
tp553
a(I0
g118
tp554
a(I1
g168
tp555
a(I2
g120
tp556
a(I3
g440
tp557
a(I0
g120
tp558
a(I1
g120
tp559
a(I2
g118
tp560
a(I3
g440
tp561
a(I0
g118
tp562
a(I1
g168
tp563
a(I2
g120
tp564
a(I3
g440
tp565
a(I0
g120
tp566
a(I1
g172
tp567
a(I2
g172
tp568
a(I3
g118
tp569
a(I0
g118
tp570
a(I1
g168
tp571
a(I2
g168
tp572
a(I3
g118
tp573
a(I0
g118
tp574
a(I1
g168
tp575
a(I2
g118
tp576
a(I3
g118
tp577
a(I0
g172
tp578
a(I1
g120
tp579
a(I2
g118
tp580
a(I3
g118
tp581
a(I0
g172
tp582
a(I1
g168
tp583
a(I2
g172
tp584
a(I3
g118
tp585
a(I0
g172
tp586
a(I1
g168
tp587
a(I2
g172
tp588
a(I3
g118
tp589
a(I0
g172
tp590
a(I1
g120
tp591
a(I2
g172
tp592
a(I3
g118
tp593
a(I0
g120
tp594
a(I1
g168
tp595
a(I2
g172
tp596
a(I3
g118
tp597
a(I0
g120
tp598
a(I1
g168
tp599
a(I2
g120
tp600
a(I3
g118
tp601
a(I0
g120
tp602
a(I1
g120
tp603
a(I2
g120
tp604
a(I3
g118
tp605
a(I0
g172
tp606
a(I1
g118
tp607
a(I2
g120
tp608
a(I3
g118
tp609
a(I0
g172
tp610
a(I1
g168
tp611
a(I2
g172
tp612
a(I3
g118
tp613
a(I0
g120
tp614
a(I1
g168
tp615
a(I2
g172
tp616
a(I3
g118
tp617
a(I0
g120
tp618
a(I1
g120
tp619
a(I2
g120
tp620
a(I3
g168
tp621
a(I0
g120
tp622
a(I1
g118
tp623
a(I2
g120
tp624
a(I3
g168
tp625
a(I0
g120
tp626
a(I1
g118
tp627
a(I2
g120
tp628
a(I3
g120
tp629
a(I0
g118
tp630
a(I1
g118
tp631
a(I2
g172
tp632
a(I3
g120
tp633
a(I0
g120
tp634
a(I1
g172
tp635
a(I2
g172
tp636
a(I3
g120
tp637
a(I0
g168
tp638
a(I1
g172
tp639
a(I2
g172
tp640
a(I3
g120
tp641
a(I0
g118
tp642
a(I1
g168
tp643
a(I2
g172
tp644
a(I3
g168
tp645
a(I0
g120
tp646
a(I1
g168
tp647
a(I2
g118
tp648
a(I3
g120
tp649
a(I0
g118
tp650
a(I1
g120
tp651
a(I2
g120
tp652
a(I3
g120
tp653
a(I0
g120
tp654
a(I1
g120
tp655
a(I2
g172
tp656
a(I3
g172
tp657
a(I0
g120
tp658
a(I1
g168
tp659
a(I2
g172
tp660
a(I3
g168
tp661
a(I0
g118
tp662
a(I1
g168
tp663
a(I2
g118
tp664
a(I3
g118
tp665
a(I0
g120
tp666
a(I1
g118
tp667
a(I2
g172
tp668
a(I3
g118
tp669
a(I0
g118
tp670
a(I1
g168
tp671
a(I2
g172
tp672
a(I3
g168
tp673
a(I0
g172
tp674
a(I1
g172
tp675
a(I2
g168
tp676
a(I3
g168
tp677
a(I0
g168
tp678
a(I1
g120
tp679
a(I2
g168
tp680
a(I3
g120
tp681
a(I0
g120
tp682
a(I1
g120
tp683
a(I2
g120
tp684
a(I3
g168
tp685
a(I0
g118
tp686
a(I1
g168
tp687
a(I2
g120
tp688
a(I3
g120
tp689
a(I0
g172
tp690
a(I1
g172
tp691
a(I2
g120
tp692
a(I3
g118
tp693
a(I0
g172
tp694
a(I1
g118
tp695
a(I2
g172
tp696
a(I3
g168
tp697
a(I0
g172
tp698
a(I1
g118
tp699
a(I2
g172
tp700
a(I3
g172
tp701
a(I0
g172
tp702
a(I1
g118
tp703
a(I2
g118
tp704
a(I3
g172
tp705
a(I0
g172
tp706
a(I1
g118
tp707
a(I2
g120
tp708
a(I3
g118
tp709
a(I0
g172
tp710
a(I1
g118
tp711
a(I2
g172
tp712
a(I3
g118
tp713
a(I0
g120
tp714
a(I1
g172
tp715
a(I2
g120
tp716
a(I3
g118
tp717
a(I0
g172
tp718
a(I1
g172
tp719
a(I2
g118
tp720
a(I3
g172
tp721
a(I0
g168
tp722
a(I1
g168
tp723
a(I2
g168
tp724
a(I3
g168
tp725
a(I0
g120
tp726
a(I1
g118
tp727
a(I2
g168
tp728
a(I3
g120
tp729
a(I0
g120
tp730
a(I1
g120
tp731
a(I2
g168
tp732
a(I3
g120
tp733
a(I0
g172
tp734
a(I1
g168
tp735
a(I2
g168
tp736
a(I3
g120
tp737
a(I0
g172
tp738
a(I1
g120
tp739
a(I2
g120
tp740
a(I3
g168
tp741
a(I0
g120
tp742
a(I1
g168
tp743
a(I2
g120
tp744
a(I3
g168
tp745
a(I0
g172
tp746
a(I1
g168
tp747
a(I2
g172
tp748
a(I3
g172
tp749
a(I0
g168
tp750
a(I1
g118
tp751
a(I2
g172
tp752
a(I3
g120
tp753
a(I0
g120
tp754
a(I1
g118
tp755
a(I2
g120
tp756
a(I3
g118
tp757
a(I0
g120
tp758
a(I1
g168
tp759
a(I2
g120
tp760
a(I3
g168
tp761
a(I0
g172
tp762
a(I1
g172
tp763
a(I2
g120
tp764
a(I3
g172
tp765
a(I0
g172
tp766
a(I1
g118
tp767
a(I2
g172
tp768
a(I3
g120
tp769
a(I0
g172
tp770
a(I1
g118
tp771
a(I2
g172
tp772
a(I3
g118
tp773
a(I0
g172
tp774
a(I1
g168
tp775
a(I2
g172
tp776
a(I3
g168
tp777
a(I0
g118
tp778
a(I1
g118
tp779
a(I2
g172
tp780
a(I3
g172
tp781
a(I0
g118
tp782
a(I1
g118
tp783
a(I2
g118
tp784
a(I3
g120
tp785
a(I0
g168
tp786
a(I1
g118
tp787
a(I2
g172
tp788
a(I3
g118
tp789
a(I0
g172
tp790
a(I1
g118
tp791
a(I2
g172
tp792
a(I3
g168
tp793
a(I0
g120
tp794
a(I1
g118
tp795
a(I2
g120
tp796
a(I3
g172
tp797
a(I0
g172
tp798
a(I1
g120
tp799
a(I2
g118
tp800
a(I3
g120
tp801
a(I0
g172
tp802
a(I1
g120
tp803
a(I2
g118
tp804
a(I3
g118
tp805
a(I0
g118
tp806
a(I1
g120
tp807
a(I2
g118
tp808
a(I3
g168
tp809
a(I0
g118
tp810
a(I1
g120
tp811
a(I2
g118
tp812
a(I3
g172
tp813
a(I0
g118
tp814
a(I1
g120
tp815
a(I2
g118
tp816
a(I3
g172
tp817
a(I0
g118
tp818
a(I1
g172
tp819
a(I2
g172
tp820
a(I3
g118
tp821
a(I0
g118
tp822
a(I1
g172
tp823
a(I2
g118
tp824
a(I3
g172
tp825
a(I0
g172
tp826
a(I1
g118
tp827
a(I2
g118
tp828
a(I3
g172
tp829
a(I0
g118
tp830
a(I1
g172
tp831
a(I2
g172
tp832
a(I3
g120
tp833
a(I0
g120
tp834
a(I1
g172
tp835
a(I2
g168
tp836
a(I3
g120
tp837
a(I0
g120
tp838
a(I1
g120
tp839
a(I2
g120
tp840
a(I3
g120
tp841
a(I0
g172
tp842
a(I1
g172
tp843
a(I2
g120
tp844
a(I3
g120
tp845
a(I0
g120
tp846
a(I1
g172
tp847
a(I2
g120
tp848
a(I3
g172
tp849
a(I0
g120
tp850
a(I1
g172
tp851
a(I2
g120
tp852
a(I3
g120
tp853
a(I0
g120
tp854
a(I1
g120
tp855
a(I2
g120
tp856
a(I3
g120
tp857
a(I0
g120
tp858
a(I1
g118
tp859
a(I2
g120
tp860
a(I3
g120
tp861
a(I0
g120
tp862
a(I1
g172
tp863
a(I2
g120
tp864
a(I3
g120
tp865
a(I0
g118
tp866
a(I1
g168
tp867
a(I2
g120
tp868
a(I3
g120
tp869
a(I0
g120
tp870
a(I1
g168
tp871
a(I2
g120
tp872
a(I3
g118
tp873
a(I0
g120
tp874
a(I1
g118
tp875
a(I2
g120
tp876
a(I3
g118
tp877
a(I0
g120
tp878
a(I1
g120
tp879
a(I2
g120
tp880
a(I3
g118
tp881
a(I0
g120
tp882
a(I1
g172
tp883
a(I2
g120
tp884
a(I3
g118
tp885
a(I0
g120
tp886
a(I1
g172
tp887
a(I2
g120
tp888
a(I3
g118
tp889
a(I0
g120
tp890
a(I1
g172
tp891
a(I2
g172
tp892
a(I3
g168
tp893
a(I0
g120
tp894
a(I1
g120
tp895
a(I2
g172
tp896
a(I3
g168
tp897
a(I0
g120
tp898
a(I1
g120
tp899
a(I2
g118
tp900
a(I3
g120
tp901
a(I0
g120
tp902
a(I1
g120
tp903
a(I2
g118
tp904
a(I3
g168
tp905
a(I0
g120
tp906
a(I1
g168
tp907
a(I2
g118
tp908
a(I3
g168
tp909
a(I0
g120
tp910
a(I1
g168
tp911
asS'length'
p912
I1200
sS'agents'
p913
(lp914
(igame
Agent
p915
(dp916
S'index'
p917
I0
sba(igame
Agent
p918
(dp919
g917
I0
sba(igame
Agent
p920
(dp921
g917
I0
sba(igame
Agent
p922
(dp923
g917
I0
sbasS'redTeamName'
p924
S'JK'
p925
s.