(dp1
S'layout'
p2
(ilayout
Layout
p3
(dp4
S'capsules'
p5
(lp6
(I13
I1
tp7
a(I30
I3
tp8
a(I3
I14
tp9
a(I20
I16
tp10
asS'numGhosts'
p11
I4
sS'food'
p12
(igame
Grid
p13
(dp14
S'CELLS_PER_INT'
p15
I30
sS'width'
p16
I34
sS'data'
p17
(lp18
(lp19
I00
aI00
aI00
aI00
aI00
aI00
aI00
aI00
aI00
aI00
aI00
aI00
aI00
aI00
aI00
aI00
aI00
aI00
aa(lp20
I00
aI00
aI00
aI00
aI00
aI00
aI00
aI00
aI00
aI00
aI00
aI00
aI00
aI00
aI00
aI00
aI00
aI00
aa(lp21
I00
aI00
aI00
aI00
aI00
aI00
aI00
aI00
aI00
aI00
aI00
aI00
aI00
aI00
aI00
aI00
aI00
aI00
aa(lp22
I00
aI00
aI00
aI00
aI00
aI00
aI00
aI00
aI00
aI00
aI00
aI00
aI00
aI01
aI00
aI00
aI01
aI00
aa(lp23
I00
aI00
aI00
aI00
aI00
aI00
aI00
aI00
aI00
aI00
aI00
aI01
aI00
aI00
aI00
aI00
aI00
aI00
aa(lp24
I00
aI00
aI00
aI00
aI00
aI00
aI00
aI00
aI01
aI00
aI00
aI00
aI00
aI01
aI00
aI01
aI01
aI00
aa(lp25
I00
aI01
aI00
aI01
aI00
aI00
aI01
aI00
aI00
aI00
aI00
aI00
aI00
aI00
aI00
aI00
aI00
aI00
aa(lp26
I00
aI00
aI00
aI00
aI00
aI00
aI00
aI00
aI01
aI00
aI00
aI01
aI01
aI00
aI00
aI00
aI00
aI00
aa(lp27
I00
aI01
aI00
aI00
aI01
aI00
aI00
aI00
aI00
aI00
aI00
aI00
aI00
aI00
aI00
aI01
aI00
aI00
aa(lp28
I00
aI01
aI00
aI01
aI00
aI00
aI00
aI00
aI01
aI00
aI00
aI00
aI01
aI00
aI00
aI00
aI00
aI00
aa(lp29
I00
aI01
aI00
aI00
aI01
aI00
aI00
aI00
aI00
aI00
aI00
aI00
aI00
aI00
aI00
aI00
aI00
aI00
aa(lp30
I00
aI00
aI00
aI00
aI00
aI00
aI00
aI00
aI00
aI00
aI00
aI00
aI00
aI00
aI00
aI00
aI00
aI00
aa(lp31
I00
aI00
aI00
aI01
aI01
aI00
aI00
aI00
aI00
aI00
aI00
aI00
aI00
aI00
aI00
aI00
aI00
aI00
aa(lp32
I00
aI00
aI00
aI00
aI00
aI00
aI00
aI00
aI00
aI00
aI00
aI00
aI00
aI00
aI00
aI00
aI01
aI00
aa(lp33
I00
aI00
aI00
aI00
aI01
aI00
aI00
aI01
aI01
aI00
aI00
aI00
aI01
aI00
aI01
aI00
aI00
aI00
aa(lp34
I00
aI00
aI00
aI00
aI00
aI00
aI00
aI00
aI00
aI00
aI00
aI00
aI00
aI00
aI00
aI00
aI00
aI00
aa(lp35
I00
aI00
aI00
aI00
aI00
aI00
aI00
aI00
aI00
aI00
aI00
aI00
aI00
aI00
aI00
aI00
aI00
aI00
aa(lp36
I00
aI00
aI00
aI00
aI00
aI00
aI00
aI00
aI00
aI00
aI00
aI00
aI00
aI00
aI00
aI00
aI00
aI00
aa(lp37
I00
aI00
aI00
aI00
aI00
aI00
aI00
aI00
aI00
aI00
aI00
aI00
aI00
aI00
aI00
aI00
aI00
aI00
aa(lp38
I00
aI00
aI00
aI01
aI00
aI01
aI00
aI00
aI00
aI01
aI01
aI00
aI00
aI01
aI00
aI00
aI00
aI00
aa(lp39
I00
aI01
aI00
aI00
aI00
aI00
aI00
aI00
aI00
aI00
aI00
aI00
aI00
aI00
aI00
aI00
aI00
aI00
aa(lp40
I00
aI00
aI00
aI00
aI00
aI00
aI00
aI00
aI00
aI00
aI00
aI00
aI00
aI01
aI01
aI00
aI00
aI00
aa(lp41
I00
aI00
aI00
aI00
aI00
aI00
aI00
aI00
aI00
aI00
aI00
aI00
aI00
aI00
aI00
aI00
aI00
aI00
aa(lp42
I00
aI00
aI00
aI00
aI00
aI00
aI00
aI00
aI00
aI00
aI00
aI00
aI00
aI01
aI00
aI00
aI01
aI00
aa(lp43
I00
aI00
aI00
aI00
aI00
aI01
aI00
aI00
aI00
aI01
aI00
aI00
aI00
aI00
aI01
aI00
aI01
aI00
aa(lp44
I00
aI00
aI01
aI00
aI00
aI00
aI00
aI00
aI00
aI00
aI00
aI00
aI00
aI01
aI00
aI00
aI01
aI00
aa(lp45
I00
aI00
aI00
aI00
aI00
aI01
aI01
aI00
aI00
aI01
aI00
aI00
aI00
aI00
aI00
aI00
aI00
aI00
aa(lp46
I00
aI00
aI00
aI00
aI00
aI00
aI00
aI00
aI00
aI00
aI00
aI01
aI00
aI00
aI01
aI00
aI01
aI00
aa(lp47
I00
aI01
aI01
aI00
aI01
aI00
aI00
aI00
aI00
aI01
aI00
aI00
aI00
aI00
aI00
aI00
aI00
aI00
aa(lp48
I00
aI00
aI00
aI00
aI00
aI00
aI01
aI00
aI00
aI00
aI00
aI00
aI00
aI00
aI00
aI00
aI00
aI00
aa(lp49
I00
aI01
aI00
aI00
aI01
aI00
aI00
aI00
aI00
aI00
aI00
aI00
aI00
aI00
aI00
aI00
aI00
aI00
aa(lp50
I00
aI00
aI00
aI00
aI00
aI00
aI00
aI00
aI00
aI00
aI00
aI00
aI00
aI00
aI00
aI00
aI00
aI00
aa(lp51
I00
aI00
aI00
aI00
aI00
aI00
aI00
aI00
aI00
aI00
aI00
aI00
aI00
aI00
aI00
aI00
aI00
aI00
aa(lp52
I00
aI00
aI00
aI00
aI00
aI00
aI00
aI00
aI00
aI00
aI00
aI00
aI00
aI00
aI00
aI00
aI00
aI00
aasS'height'
p53
I18
sbsS'agentPositions'
p54
(lp55
(I00
(I1
I2
tp56
tp57
a(I00
(I32
I15
tp58
tp59
a(I00
(I1
I1
tp60
tp61
a(I00
(I32
I16
tp62
tp63
asg53
I18
sg16
I34
sS'walls'
p64
(igame
Grid
p65
(dp66
g15
I30
sg16
I34
sg17
(lp67
(lp68
I01
aI01
aI01
aI01
aI01
aI01
aI01
aI01
aI01
aI01
aI01
aI01
aI01
aI01
aI01
aI01
aI01
aI01
aa(lp69
I01
aI00
aI00
aI00
aI00
aI00
aI00
aI00
aI00
aI00
aI00
aI00
aI00
aI00
aI00
aI00
aI00
aI01
aa(lp70
I01
aI01
aI01
aI01
aI01
aI01
aI01
aI01
aI01
aI01
aI01
aI01
aI01
aI01
aI01
aI01
aI00
aI01
aa(lp71
I01
aI00
aI00
aI00
aI00
aI00
aI00
aI01
aI00
aI00
aI00
aI00
aI00
aI00
aI00
aI00
aI00
aI01
aa(lp72
I01
aI01
aI00
aI01
aI01
aI01
aI00
aI00
aI00
aI01
aI01
aI00
aI01
aI01
aI01
aI01
aI01
aI01
aa(lp73
I01
aI00
aI00
aI00
aI00
aI00
aI00
aI01
aI00
aI00
aI00
aI00
aI01
aI00
aI01
aI00
aI00
aI01
aa(lp74
I01
aI00
aI00
aI00
aI00
aI01
aI00
aI01
aI00
aI01
aI01
aI00
aI00
aI00
aI01
aI00
aI01
aI01
aa(lp75
I01
aI01
aI01
aI00
aI01
aI01
aI00
aI01
aI00
aI00
aI00
aI00
aI00
aI00
aI01
aI00
aI00
aI01
aa(lp76
I01
aI00
aI01
aI00
aI00
aI01
aI00
aI01
aI01
aI01
aI01
aI01
aI00
aI01
aI01
aI00
aI00
aI01
aa(lp77
I01
aI00
aI01
aI00
aI01
aI01
aI00
aI01
aI00
aI00
aI00
aI00
aI00
aI00
aI00
aI00
aI00
aI01
aa(lp78
I01
aI00
aI00
aI00
aI00
aI01
aI00
aI01
aI00
aI00
aI01
aI00
aI00
aI00
aI01
aI00
aI00
aI01
aa(lp79
I01
aI00
aI01
aI01
aI01
aI01
aI00
aI01
aI01
aI01
aI01
aI01
aI01
aI01
aI01
aI01
aI00
aI01
aa(lp80
I01
aI00
aI01
aI00
aI00
aI00
aI00
aI00
aI00
aI00
aI00
aI00
aI00
aI00
aI00
aI00
aI00
aI01
aa(lp81
I01
aI00
aI01
aI01
aI01
aI01
aI01
aI01
aI01
aI01
aI01
aI01
aI01
aI01
aI01
aI01
aI00
aI01
aa(lp82
I01
aI00
aI01
aI00
aI00
aI00
aI00
aI00
aI00
aI00
aI00
aI00
aI00
aI00
aI00
aI00
aI00
aI01
aa(lp83
I01
aI00
aI00
aI00
aI01
aI01
aI01
aI00
aI01
aI01
aI01
aI01
aI01
aI00
aI01
aI01
aI01
aI01
aa(lp84
I01
aI00
aI01
aI00
aI00
aI00
aI00
aI00
aI01
aI00
aI00
aI00
aI00
aI00
aI00
aI00
aI00
aI01
aa(lp85
I01
aI00
aI00
aI00
aI00
aI00
aI00
aI00
aI00
aI01
aI00
aI00
aI00
aI00
aI00
aI01
aI00
aI01
aa(lp86
I01
aI01
aI01
aI01
aI00
aI01
aI01
aI01
aI01
aI01
aI00
aI01
aI01
aI01
aI00
aI00
aI00
aI01
aa(lp87
I01
aI00
aI00
aI00
aI00
aI00
aI00
aI00
aI00
aI00
aI00
aI00
aI00
aI00
aI00
aI01
aI00
aI01
aa(lp88
I01
aI00
aI01
aI01
aI01
aI01
aI01
aI01
aI01
aI01
aI01
aI01
aI01
aI01
aI01
aI01
aI00
aI01
aa(lp89
I01
aI00
aI00
aI00
aI00
aI00
aI00
aI00
aI00
aI00
aI00
aI00
aI00
aI00
aI00
aI01
aI00
aI01
aa(lp90
I01
aI00
aI01
aI01
aI01
aI01
aI01
aI01
aI01
aI01
aI01
aI00
aI01
aI01
aI01
aI01
aI00
aI01
aa(lp91
I01
aI00
aI00
aI01
aI00
aI00
aI00
aI01
aI00
aI00
aI01
aI00
aI01
aI00
aI00
aI00
aI00
aI01
aa(lp92
I01
aI00
aI00
aI00
aI00
aI00
aI00
aI00
aI00
aI00
aI01
aI00
aI01
aI01
aI00
aI01
aI00
aI01
aa(lp93
I01
aI00
aI00
aI01
aI01
aI00
aI01
aI01
aI01
aI01
aI01
aI00
aI01
aI00
aI00
aI01
aI00
aI01
aa(lp94
I01
aI00
aI00
aI01
aI00
aI00
aI00
aI00
aI00
aI00
aI01
aI00
aI01
aI01
aI00
aI01
aI01
aI01
aa(lp95
I01
aI01
aI00
aI01
aI00
aI00
aI00
aI01
aI01
aI00
aI01
aI00
aI01
aI00
aI00
aI00
aI00
aI01
aa(lp96
I01
aI00
aI00
aI01
aI00
aI01
aI00
aI00
aI00
aI00
aI01
aI00
aI00
aI00
aI00
aI00
aI00
aI01
aa(lp97
I01
aI01
aI01
aI01
aI01
aI01
aI00
aI01
aI01
aI00
aI00
aI00
aI01
aI01
aI01
aI00
aI01
aI01
aa(lp98
I01
aI00
aI00
aI00
aI00
aI00
aI00
aI00
aI00
aI00
aI01
aI00
aI00
aI00
aI00
aI00
aI00
aI01
aa(lp99
I01
aI00
aI01
aI01
aI01
aI01
aI01
aI01
aI01
aI01
aI01
aI01
aI01
aI01
aI01
aI01
aI01
aI01
aa(lp100
I01
aI00
aI00
aI00
aI00
aI00
aI00
aI00
aI00
aI00
aI00
aI00
aI00
aI00
aI00
aI00
aI00
aI01
aa(lp101
I01
aI01
aI01
aI01
aI01
aI01
aI01
aI01
aI01
aI01
aI01
aI01
aI01
aI01
aI01
aI01
aI01
aI01
aasg53
I18
sbsS'layoutText'
p102
(lp103
S'%%%%%%%%%%%%%%%%%%%%%%%%%%%%%%%%%%'
p104
aS'%  .%.%      . %    o  ...%. % %4%'
p105
aS'% % %.  .  % % % % %%%% %%%    %2%'
p106
aS'% %o%%%%% %% %.%    %.% .  . % % %'
p107
aS'% %.%.  %  % %    %.%.%.%.%  % % %'
p108
aS'% % %% . . % %.%  % % %%%%%% % % %'
p109
aS'% % .  .%  % % %  % %      .   % %'
p110
aS'% % % % % %% % %   .% %%%%%%% %% %'
p111
aS'% % % % %  % % % %%.% % .%. .  % %'
p112
aS'% %  . .%. % %.%% % % %  % % % % %'
p113
aS'% %% %%%%%%% %.   % % %% % % % % %'
p114
aS'% %   .      % %  % % %  %.  . % %'
p115
aS'% % % %%%%%% % %  %.% % . . %% % %'
p116
aS'% % %  %.%.%.%.%    % %  %  .%.% %'
p117
aS'% % % .  . %.%    %.% %% %%%%%o% %'
p118
aS'%1%    %%% %%%% % % % %  .  .% % %'
p119
aS'%3% % .%...  o    % .      %.%.  %'
p120
aS'%%%%%%%%%%%%%%%%%%%%%%%%%%%%%%%%%%'
p121
asbsS'blueTeamName'
p122
S'DefinitelyNotOptimal'
p123
sS'actions'
p124
(lp125
(I0
S'North'
p126
tp127
a(I1
S'South'
p128
tp129
a(I2
g126
tp130
a(I3
g128
tp131
a(I0
g126
tp132
a(I1
g128
tp133
a(I2
g126
tp134
a(I3
g128
tp135
a(I0
g126
tp136
a(I1
g128
tp137
a(I2
g126
tp138
a(I3
g128
tp139
a(I0
g126
tp140
a(I1
g128
tp141
a(I2
g126
tp142
a(I3
g128
tp143
a(I0
g126
tp144
a(I1
g128
tp145
a(I2
g126
tp146
a(I3
g128
tp147
a(I0
g126
tp148
a(I1
g128
tp149
a(I2
g126
tp150
a(I3
g128
tp151
a(I0
g126
tp152
a(I1
g128
tp153
a(I2
g126
tp154
a(I3
g128
tp155
a(I0
g126
tp156
a(I1
g128
tp157
a(I2
g126
tp158
a(I3
g128
tp159
a(I0
g126
tp160
a(I1
g128
tp161
a(I2
g126
tp162
a(I3
g128
tp163
a(I0
g126
tp164
a(I1
g128
tp165
a(I2
g126
tp166
a(I3
g128
tp167
a(I0
g126
tp168
a(I1
g128
tp169
a(I2
g126
tp170
a(I3
g128
tp171
a(I0
g126
tp172
a(I1
g128
tp173
a(I2
g126
tp174
a(I3
g128
tp175
a(I0
g126
tp176
a(I1
g128
tp177
a(I2
g126
tp178
a(I3
g128
tp179
a(I0
g126
tp180
a(I1
g128
tp181
a(I2
g126
tp182
a(I3
g128
tp183
a(I0
S'East'
p184
tp185
a(I1
S'West'
p186
tp187
a(I2
g126
tp188
a(I3
g128
tp189
a(I0
g184
tp190
a(I1
g186
tp191
a(I2
g184
tp192
a(I3
g186
tp193
a(I0
g128
tp194
a(I1
g126
tp195
a(I2
g184
tp196
a(I3
g186
tp197
a(I0
g128
tp198
a(I1
g126
tp199
a(I2
g128
tp200
a(I3
g126
tp201
a(I0
g128
tp202
a(I1
g126
tp203
a(I2
g128
tp204
a(I3
g126
tp205
a(I0
g128
tp206
a(I1
g126
tp207
a(I2
g128
tp208
a(I3
g126
tp209
a(I0
g128
tp210
a(I1
g126
tp211
a(I2
g128
tp212
a(I3
g126
tp213
a(I0
g184
tp214
a(I1
g186
tp215
a(I2
g128
tp216
a(I3
g126
tp217
a(I0
g184
tp218
a(I1
g186
tp219
a(I2
g184
tp220
a(I3
g186
tp221
a(I0
g184
tp222
a(I1
g186
tp223
a(I2
g184
tp224
a(I3
g186
tp225
a(I0
g184
tp226
a(I1
g128
tp227
a(I2
g184
tp228
a(I3
g186
tp229
a(I0
g126
tp230
a(I1
g186
tp231
a(I2
g184
tp232
a(I3
g128
tp233
a(I0
g184
tp234
a(I1
g186
tp235
a(I2
g126
tp236
a(I3
g186
tp237
a(I0
g184
tp238
a(I1
g186
tp239
a(I2
g184
tp240
a(I3
g186
tp241
a(I0
g126
tp242
a(I1
g128
tp243
a(I2
g184
tp244
a(I3
g186
tp245
a(I0
g126
tp246
a(I1
g128
tp247
a(I2
g126
tp248
a(I3
g128
tp249
a(I0
g126
tp250
a(I1
g128
tp251
a(I2
g126
tp252
a(I3
g128
tp253
a(I0
g184
tp254
a(I1
g186
tp255
a(I2
g126
tp256
a(I3
g128
tp257
a(I0
g126
tp258
a(I1
g128
tp259
a(I2
g184
tp260
a(I3
g128
tp261
a(I0
g184
tp262
a(I1
g186
tp263
a(I2
g126
tp264
a(I3
g186
tp265
a(I0
g184
tp266
a(I1
g186
tp267
a(I2
g184
tp268
a(I3
g186
tp269
a(I0
g184
tp270
a(I1
g186
tp271
a(I2
g184
tp272
a(I3
g186
tp273
a(I0
g184
tp274
a(I1
g186
tp275
a(I2
g184
tp276
a(I3
g186
tp277
a(I0
g128
tp278
a(I1
g126
tp279
a(I2
g184
tp280
a(I3
g186
tp281
a(I0
g128
tp282
a(I1
g126
tp283
a(I2
g128
tp284
a(I3
g126
tp285
a(I0
g128
tp286
a(I1
g126
tp287
a(I2
g128
tp288
a(I3
g126
tp289
a(I0
g184
tp290
a(I1
g186
tp291
a(I2
g128
tp292
a(I3
g126
tp293
a(I0
g184
tp294
a(I1
g186
tp295
a(I2
g184
tp296
a(I3
g186
tp297
a(I0
g184
tp298
a(I1
g128
tp299
a(I2
g184
tp300
a(I3
g186
tp301
a(I0
g126
tp302
a(I1
g186
tp303
a(I2
g126
tp304
a(I3
g128
tp305
a(I0
g184
tp306
a(I1
g186
tp307
a(I2
g126
tp308
a(I3
g186
tp309
a(I0
g126
tp310
a(I1
g186
tp311
a(I2
g126
tp312
a(I3
g186
tp313
a(I0
g126
tp314
a(I1
g126
tp315
a(I2
g128
tp316
a(I3
g186
tp317
a(I0
g184
tp318
a(I1
g126
tp319
a(I2
g128
tp320
a(I3
g126
tp321
a(I0
g186
tp322
a(I1
g126
tp323
a(I2
g128
tp324
a(I3
g126
tp325
a(I0
g184
tp326
a(I1
g126
tp327
a(I2
g186
tp328
a(I3
g126
tp329
a(I0
g186
tp330
a(I1
g126
tp331
a(I2
g186
tp332
a(I3
g126
tp333
a(I0
g128
tp334
a(I1
g126
tp335
a(I2
g128
tp336
a(I3
g126
tp337
a(I0
g128
tp338
a(I1
g126
tp339
a(I2
g128
tp340
a(I3
g126
tp341
a(I0
g186
tp342
a(I1
g126
tp343
a(I2
g128
tp344
a(I3
g126
tp345
a(I0
g184
tp346
a(I1
g128
tp347
a(I2
g128
tp348
a(I3
g128
tp349
a(I0
g126
tp350
a(I1
g128
tp351
a(I2
g128
tp352
a(I3
g128
tp353
a(I0
g126
tp354
a(I1
g128
tp355
a(I2
g128
tp356
a(I3
g128
tp357
a(I0
g184
tp358
a(I1
g128
tp359
a(I2
g184
tp360
a(I3
g128
tp361
a(I0
g186
tp362
a(I1
g128
tp363
a(I2
g184
tp364
a(I3
g128
tp365
a(I0
g184
tp366
a(I1
g128
tp367
a(I2
g128
tp368
a(I3
g128
tp369
a(I0
g186
tp370
a(I1
g128
tp371
a(I2
g128
tp372
a(I3
g128
tp373
a(I0
g184
tp374
a(I1
g128
tp375
a(I2
g128
tp376
a(I3
g128
tp377
a(I0
g186
tp378
a(I1
g128
tp379
a(I2
g128
tp380
a(I3
g128
tp381
a(I0
g184
tp382
a(I1
g128
tp383
a(I2
g186
tp384
a(I3
g128
tp385
a(I0
g186
tp386
a(I1
g128
tp387
a(I2
g186
tp388
a(I3
g128
tp389
a(I0
g184
tp390
a(I1
g128
tp391
a(I2
g126
tp392
a(I3
g128
tp393
a(I0
g186
tp394
a(I1
g128
tp395
a(I2
g126
tp396
a(I3
g128
tp397
a(I0
g184
tp398
a(I1
g128
tp399
a(I2
g126
tp400
a(I3
g128
tp401
a(I0
g186
tp402
a(I1
g186
tp403
a(I2
g126
tp404
a(I3
g128
tp405
a(I0
g184
tp406
a(I1
g186
tp407
a(I2
g184
tp408
a(I3
g186
tp409
a(I0
g186
tp410
a(I1
g126
tp411
a(I2
g184
tp412
a(I3
g186
tp413
a(I0
g184
tp414
a(I1
g126
tp415
a(I2
g128
tp416
a(I3
g126
tp417
a(I0
g186
tp418
a(I1
g126
tp419
a(I2
g128
tp420
a(I3
g126
tp421
a(I0
g184
tp422
a(I1
g126
tp423
a(I2
g128
tp424
a(I3
g126
tp425
a(I0
g186
tp426
a(I1
g126
tp427
a(I2
g128
tp428
a(I3
g126
tp429
a(I0
g184
tp430
a(I1
g126
tp431
a(I2
g186
tp432
a(I3
g126
tp433
a(I0
g186
tp434
a(I1
g126
tp435
a(I2
g128
tp436
a(I3
g126
tp437
a(I0
g184
tp438
a(I1
g126
tp439
a(I2
g128
tp440
a(I3
g126
tp441
a(I0
g186
tp442
a(I1
g186
tp443
a(I2
g184
tp444
a(I3
g126
tp445
a(I0
g184
tp446
a(I1
g126
tp447
a(I2
g184
tp448
a(I3
g186
tp449
a(I0
g186
tp450
a(I1
g126
tp451
a(I2
g126
tp452
a(I3
g126
tp453
a(I0
g184
tp454
a(I1
g186
tp455
a(I2
g126
tp456
a(I3
g126
tp457
a(I0
g186
tp458
a(I1
g126
tp459
a(I2
g186
tp460
a(I3
g186
tp461
a(I0
g184
tp462
a(I1
g126
tp463
a(I2
g126
tp464
a(I3
g126
tp465
a(I0
g186
tp466
a(I1
g126
tp467
a(I2
g126
tp468
a(I3
g126
tp469
a(I0
g184
tp470
a(I1
g186
tp471
a(I2
g126
tp472
a(I3
g186
tp473
a(I0
g186
tp474
a(I1
g186
tp475
a(I2
g126
tp476
a(I3
g126
tp477
a(I0
g184
tp478
a(I1
g186
tp479
a(I2
g186
tp480
a(I3
g186
tp481
a(I0
g186
tp482
a(I1
g186
tp483
a(I2
g186
tp484
a(I3
g186
tp485
a(I0
g184
tp486
a(I1
g186
tp487
a(I2
g128
tp488
a(I3
g186
tp489
a(I0
g186
tp490
a(I1
g126
tp491
a(I2
g128
tp492
a(I3
g186
tp493
a(I0
g184
tp494
a(I1
g126
tp495
a(I2
g128
tp496
a(I3
g126
tp497
a(I0
g186
tp498
a(I1
g186
tp499
a(I2
g128
tp500
a(I3
g126
tp501
a(I0
g128
tp502
a(I1
g186
tp503
a(I2
g184
tp504
a(I3
g186
tp505
a(I0
g128
tp506
a(I1
g186
tp507
a(I2
g184
tp508
a(I3
g186
tp509
a(I0
g184
tp510
a(I1
g186
tp511
a(I2
g126
tp512
a(I3
g186
tp513
a(I0
g128
tp514
a(I1
g186
tp515
a(I2
g184
tp516
a(I3
g186
tp517
a(I0
g128
tp518
a(I1
g186
tp519
a(I2
g184
tp520
a(I3
g186
tp521
a(I0
g128
tp522
a(I1
g186
tp523
a(I2
g184
tp524
a(I3
g128
tp525
a(I0
g128
tp526
a(I1
g128
tp527
a(I2
g126
tp528
a(I3
g128
tp529
a(I0
g128
tp530
a(I1
S'Stop'
p531
tp532
a(I2
g126
tp533
a(I3
g186
tp534
a(I0
g128
tp535
a(I1
g126
tp536
a(I2
g126
tp537
a(I3
g186
tp538
a(I0
g126
tp539
a(I1
g184
tp540
a(I2
g126
tp541
a(I3
g128
tp542
a(I0
g128
tp543
a(I1
g186
tp544
a(I2
g126
tp545
a(I3
g186
tp546
a(I0
g128
tp547
a(I1
g128
tp548
a(I2
g126
tp549
a(I3
g186
tp550
a(I0
g128
tp551
a(I1
g128
tp552
a(I2
g186
tp553
a(I3
g128
tp554
a(I0
g126
tp555
a(I1
g128
tp556
a(I2
g186
tp557
a(I3
g126
tp558
a(I0
g126
tp559
a(I1
g184
tp560
a(I2
g186
tp561
a(I3
g126
tp562
a(I0
g128
tp563
a(I1
g186
tp564
a(I2
g126
tp565
a(I3
g126
tp566
a(I0
g126
tp567
a(I1
g186
tp568
a(I2
g126
tp569
a(I3
g126
tp570
a(I0
g126
tp571
a(I1
g186
tp572
a(I2
g126
tp573
a(I3
g186
tp574
a(I0
g126
tp575
a(I1
g126
tp576
a(I2
g186
tp577
a(I3
g186
tp578
a(I0
g186
tp579
a(I1
g126
tp580
a(I2
g186
tp581
a(I3
g186
tp582
a(I0
g186
tp583
a(I1
g126
tp584
a(I2
g126
tp585
a(I3
g186
tp586
a(I0
g126
tp587
a(I1
g186
tp588
a(I2
g126
tp589
a(I3
g128
tp590
a(I0
g126
tp591
a(I1
g186
tp592
a(I2
g126
tp593
a(I3
g186
tp594
a(I0
g126
tp595
a(I1
g186
tp596
a(I2
g186
tp597
a(I3
g186
tp598
a(I0
g186
tp599
a(I1
g186
tp600
a(I2
g186
tp601
a(I3
g186
tp602
a(I0
g186
tp603
a(I1
g186
tp604
a(I2
g186
tp605
a(I3
g186
tp606
a(I0
g186
tp607
a(I1
g128
tp608
a(I2
g186
tp609
a(I3
g186
tp610
a(I0
g126
tp611
a(I1
g128
tp612
a(I2
g128
tp613
a(I3
g126
tp614
a(I0
g126
tp615
a(I1
g128
tp616
a(I2
g186
tp617
a(I3
g128
tp618
a(I0
g126
tp619
a(I1
g128
tp620
a(I2
g128
tp621
a(I3
g184
tp622
a(I0
g186
tp623
a(I1
g186
tp624
a(I2
g128
tp625
a(I3
g184
tp626
a(I0
g186
tp627
a(I1
g186
tp628
a(I2
g128
tp629
a(I3
g184
tp630
a(I0
g186
tp631
a(I1
g128
tp632
a(I2
g186
tp633
a(I3
g184
tp634
a(I0
g186
tp635
a(I1
g186
tp636
a(I2
g186
tp637
a(I3
g128
tp638
a(I0
g128
tp639
a(I1
g186
tp640
a(I2
g186
tp641
a(I3
g128
tp642
a(I0
g186
tp643
a(I1
g186
tp644
a(I2
g128
tp645
a(I3
g128
tp646
a(I0
g128
tp647
a(I1
g186
tp648
a(I2
g186
tp649
a(I3
g128
tp650
a(I0
g128
tp651
a(I1
g126
tp652
a(I2
g186
tp653
a(I3
g128
tp654
a(I0
g128
tp655
a(I1
g126
tp656
a(I2
g186
tp657
a(I3
g128
tp658
a(I0
g128
tp659
a(I1
g126
tp660
a(I2
g128
tp661
a(I3
g128
tp662
a(I0
g128
tp663
a(I1
g126
tp664
a(I2
g128
tp665
a(I3
g126
tp666
a(I0
g126
tp667
a(I1
g126
tp668
a(I2
g128
tp669
a(I3
g126
tp670
a(I0
g126
tp671
a(I1
g128
tp672
a(I2
g184
tp673
a(I3
g126
tp674
a(I0
g126
tp675
a(I1
g128
tp676
a(I2
g128
tp677
a(I3
g126
tp678
a(I0
g126
tp679
a(I1
g128
tp680
a(I2
g128
tp681
a(I3
g186
tp682
a(I0
g128
tp683
a(I1
g128
tp684
a(I2
g184
tp685
a(I3
g186
tp686
a(I0
g128
tp687
a(I1
g128
tp688
a(I2
g184
tp689
a(I3
g186
tp690
a(I0
g186
tp691
a(I1
g128
tp692
a(I2
g184
tp693
a(I3
g126
tp694
a(I0
g186
tp695
a(I1
g128
tp696
a(I2
g184
tp697
a(I3
g186
tp698
a(I0
g186
tp699
a(I1
g128
tp700
a(I2
g184
tp701
a(I3
g184
tp702
a(I0
g184
tp703
a(I1
g184
tp704
a(I2
g184
tp705
a(I3
g128
tp706
a(I0
g184
tp707
a(I1
g184
tp708
a(I2
g184
tp709
a(I3
g184
tp710
a(I0
g184
tp711
a(I1
g184
tp712
a(I2
g184
tp713
a(I3
g128
tp714
a(I0
g186
tp715
a(I1
g184
tp716
a(I2
g128
tp717
a(I3
g186
tp718
a(I0
g186
tp719
a(I1
g186
tp720
a(I2
g128
tp721
a(I3
g186
tp722
a(I0
g128
tp723
a(I1
g186
tp724
a(I2
g128
tp725
a(I3
g128
tp726
a(I0
g186
tp727
a(I1
g186
tp728
a(I2
g126
tp729
a(I3
g128
tp730
a(I0
g186
tp731
a(I1
g128
tp732
a(I2
g126
tp733
a(I3
g128
tp734
a(I0
g128
tp735
a(I1
g128
tp736
a(I2
g126
tp737
a(I3
g186
tp738
a(I0
g128
tp739
a(I1
g184
tp740
a(I2
g126
tp741
a(I3
g128
tp742
a(I0
g128
tp743
a(I1
g184
tp744
a(I2
g126
tp745
a(I3
g128
tp746
a(I0
g186
tp747
a(I1
g184
tp748
a(I2
g126
tp749
a(I3
g184
tp750
a(I0
g128
tp751
a(I1
g184
tp752
a(I2
g126
tp753
a(I3
g128
tp754
a(I0
g128
tp755
a(I1
g184
tp756
a(I2
g126
tp757
a(I3
g128
tp758
a(I0
g184
tp759
a(I1
g184
tp760
a(I2
g126
tp761
a(I3
g128
tp762
a(I0
g128
tp763
a(I1
g184
tp764
a(I2
g126
tp765
a(I3
g184
tp766
a(I0
g128
tp767
a(I1
g184
tp768
a(I2
g126
tp769
a(I3
g128
tp770
a(I0
g184
tp771
a(I1
g128
tp772
a(I2
g126
tp773
a(I3
g128
tp774
a(I0
g128
tp775
a(I1
g128
tp776
a(I2
g126
tp777
a(I3
g126
tp778
a(I0
g184
tp779
a(I1
g128
tp780
a(I2
g184
tp781
a(I3
g126
tp782
a(I0
g184
tp783
a(I1
g126
tp784
a(I2
g184
tp785
a(I3
g184
tp786
a(I0
g184
tp787
a(I1
g126
tp788
a(I2
g128
tp789
a(I3
g184
tp790
a(I0
g184
tp791
a(I1
g126
tp792
a(I2
g128
tp793
a(I3
g184
tp794
a(I0
g128
tp795
a(I1
g186
tp796
a(I2
g128
tp797
a(I3
g186
tp798
a(I0
g126
tp799
a(I1
g186
tp800
a(I2
g128
tp801
a(I3
g126
tp802
a(I0
g186
tp803
a(I1
g186
tp804
a(I2
g128
tp805
a(I3
g128
tp806
a(I0
g184
tp807
a(I1
g186
tp808
a(I2
g128
tp809
a(I3
g184
tp810
a(I0
g128
tp811
a(I1
g186
tp812
a(I2
g128
tp813
a(I3
g184
tp814
a(I0
g128
tp815
a(I1
g186
tp816
a(I2
g128
tp817
a(I3
g126
tp818
a(I0
g126
tp819
a(I1
g186
tp820
a(I2
g128
tp821
a(I3
g128
tp822
a(I0
g126
tp823
a(I1
g128
tp824
a(I2
g128
tp825
a(I3
g128
tp826
a(I0
g128
tp827
a(I1
g128
tp828
a(I2
g128
tp829
a(I3
g128
tp830
a(I0
g128
tp831
a(I1
g184
tp832
a(I2
g128
tp833
a(I3
g128
tp834
a(I0
g184
tp835
a(I1
g128
tp836
a(I2
g128
tp837
a(I3
g128
tp838
a(I0
g184
tp839
a(I1
g184
tp840
a(I2
g184
tp841
a(I3
g128
tp842
a(I0
g184
tp843
a(I1
g184
tp844
a(I2
g128
tp845
a(I3
g128
tp846
a(I0
g184
tp847
a(I1
g184
tp848
a(I2
g128
tp849
a(I3
g128
tp850
a(I0
g184
tp851
a(I1
g184
tp852
a(I2
g186
tp853
a(I3
g128
tp854
a(I0
g184
tp855
a(I1
g128
tp856
a(I2
g186
tp857
a(I3
g128
tp858
a(I0
g186
tp859
a(I1
g128
tp860
asS'length'
p861
I1200
sS'agents'
p862
(lp863
(igame
Agent
p864
(dp865
S'index'
p866
I0
sba(igame
Agent
p867
(dp868
g866
I0
sba(igame
Agent
p869
(dp870
g866
I0
sba(igame
Agent
p871
(dp872
g866
I0
sbasS'redTeamName'
p873
S'SquidInk'
p874
s.