(dp1
S'layout'
p2
(ilayout
Layout
p3
(dp4
S'capsules'
p5
(lp6
(I6
I5
tp7
a(I25
I10
tp8
asS'numGhosts'
p9
I4
sS'food'
p10
(igame
Grid
p11
(dp12
S'CELLS_PER_INT'
p13
I30
sS'width'
p14
I32
sS'data'
p15
(lp16
(lp17
I00
aI00
aI00
aI00
aI00
aI00
aI00
aI00
aI00
aI00
aI00
aI00
aI00
aI00
aI00
aI00
aa(lp18
I00
aI00
aI00
aI00
aI00
aI00
aI00
aI00
aI00
aI00
aI00
aI00
aI00
aI00
aI00
aI00
aa(lp19
I00
aI00
aI00
aI00
aI00
aI00
aI00
aI00
aI00
aI00
aI00
aI00
aI00
aI00
aI00
aI00
aa(lp20
I00
aI01
aI01
aI00
aI00
aI00
aI00
aI00
aI01
aI00
aI00
aI00
aI00
aI00
aI00
aI00
aa(lp21
I00
aI00
aI00
aI00
aI00
aI00
aI00
aI00
aI00
aI00
aI00
aI00
aI00
aI00
aI00
aI00
aa(lp22
I00
aI01
aI00
aI00
aI00
aI00
aI00
aI00
aI00
aI00
aI00
aI00
aI01
aI00
aI01
aI00
aa(lp23
I00
aI00
aI00
aI00
aI00
aI00
aI00
aI00
aI00
aI00
aI00
aI00
aI00
aI00
aI00
aI00
aa(lp24
I00
aI00
aI00
aI01
aI00
aI00
aI00
aI00
aI01
aI01
aI00
aI00
aI00
aI00
aI00
aI00
aa(lp25
I00
aI00
aI00
aI01
aI00
aI00
aI00
aI00
aI00
aI01
aI00
aI00
aI00
aI00
aI01
aI00
aa(lp26
I00
aI00
aI00
aI00
aI00
aI01
aI00
aI00
aI00
aI00
aI00
aI01
aI00
aI00
aI00
aI00
aa(lp27
I00
aI00
aI00
aI01
aI00
aI00
aI00
aI01
aI00
aI01
aI00
aI01
aI00
aI00
aI01
aI00
aa(lp28
I00
aI00
aI00
aI00
aI00
aI00
aI00
aI00
aI00
aI00
aI00
aI00
aI00
aI00
aI00
aI00
aa(lp29
I00
aI00
aI00
aI00
aI00
aI00
aI00
aI00
aI00
aI00
aI00
aI00
aI00
aI00
aI00
aI00
aa(lp30
I00
aI00
aI00
aI00
aI00
aI00
aI00
aI00
aI00
aI00
aI00
aI00
aI00
aI00
aI00
aI00
aa(lp31
I00
aI00
aI00
aI00
aI00
aI00
aI00
aI00
aI00
aI01
aI00
aI00
aI00
aI00
aI00
aI00
aa(lp32
I00
aI00
aI00
aI00
aI00
aI00
aI00
aI00
aI00
aI00
aI00
aI00
aI00
aI00
aI00
aI00
aa(lp33
I00
aI00
aI00
aI00
aI00
aI00
aI00
aI00
aI00
aI00
aI00
aI00
aI00
aI00
aI00
aI00
aa(lp34
I00
aI00
aI00
aI00
aI00
aI00
aI01
aI00
aI00
aI00
aI00
aI00
aI00
aI00
aI00
aI00
aa(lp35
I00
aI00
aI00
aI00
aI00
aI00
aI00
aI00
aI00
aI00
aI00
aI00
aI00
aI00
aI00
aI00
aa(lp36
I00
aI00
aI00
aI00
aI00
aI00
aI00
aI00
aI00
aI00
aI00
aI00
aI00
aI00
aI00
aI00
aa(lp37
I00
aI00
aI00
aI00
aI00
aI00
aI00
aI00
aI00
aI00
aI00
aI00
aI00
aI00
aI00
aI00
aa(lp38
I00
aI01
aI00
aI00
aI01
aI00
aI01
aI00
aI01
aI00
aI00
aI00
aI01
aI00
aI00
aI00
aa(lp39
I00
aI00
aI00
aI00
aI01
aI00
aI00
aI00
aI00
aI00
aI01
aI00
aI00
aI00
aI00
aI00
aa(lp40
I00
aI01
aI00
aI00
aI00
aI00
aI01
aI00
aI00
aI00
aI00
aI00
aI01
aI00
aI00
aI00
aa(lp41
I00
aI00
aI00
aI00
aI00
aI00
aI01
aI01
aI00
aI00
aI00
aI00
aI01
aI00
aI00
aI00
aa(lp42
I00
aI00
aI00
aI00
aI00
aI00
aI00
aI00
aI00
aI00
aI00
aI00
aI00
aI00
aI00
aI00
aa(lp43
I00
aI01
aI00
aI01
aI00
aI00
aI00
aI00
aI00
aI00
aI00
aI00
aI00
aI00
aI01
aI00
aa(lp44
I00
aI00
aI00
aI00
aI00
aI00
aI00
aI00
aI00
aI00
aI00
aI00
aI00
aI00
aI00
aI00
aa(lp45
I00
aI00
aI00
aI00
aI00
aI00
aI00
aI01
aI00
aI00
aI00
aI00
aI00
aI01
aI01
aI00
aa(lp46
I00
aI00
aI00
aI00
aI00
aI00
aI00
aI00
aI00
aI00
aI00
aI00
aI00
aI00
aI00
aI00
aa(lp47
I00
aI00
aI00
aI00
aI00
aI00
aI00
aI00
aI00
aI00
aI00
aI00
aI00
aI00
aI00
aI00
aa(lp48
I00
aI00
aI00
aI00
aI00
aI00
aI00
aI00
aI00
aI00
aI00
aI00
aI00
aI00
aI00
aI00
aasS'height'
p49
I16
sbsS'agentPositions'
p50
(lp51
(I00
(I1
I2
tp52
tp53
a(I00
(I30
I13
tp54
tp55
a(I00
(I1
I1
tp56
tp57
a(I00
(I30
I14
tp58
tp59
asg49
I16
sg14
I32
sS'walls'
p60
(igame
Grid
p61
(dp62
g13
I30
sg14
I32
sg15
(lp63
(lp64
I01
aI01
aI01
aI01
aI01
aI01
aI01
aI01
aI01
aI01
aI01
aI01
aI01
aI01
aI01
aI01
aa(lp65
I01
aI00
aI00
aI00
aI00
aI00
aI00
aI00
aI00
aI00
aI00
aI00
aI00
aI00
aI00
aI01
aa(lp66
I01
aI01
aI01
aI01
aI01
aI01
aI01
aI01
aI01
aI01
aI01
aI01
aI01
aI01
aI00
aI01
aa(lp67
I01
aI00
aI00
aI00
aI00
aI00
aI00
aI01
aI00
aI01
aI00
aI00
aI00
aI00
aI00
aI01
aa(lp68
I01
aI01
aI01
aI01
aI01
aI01
aI00
aI00
aI00
aI00
aI00
aI01
aI01
aI01
aI01
aI01
aa(lp69
I01
aI00
aI00
aI00
aI00
aI00
aI00
aI00
aI01
aI01
aI00
aI01
aI00
aI01
aI00
aI01
aa(lp70
I01
aI01
aI00
aI01
aI01
aI00
aI01
aI01
aI01
aI00
aI00
aI00
aI00
aI00
aI00
aI01
aa(lp71
I01
aI00
aI00
aI00
aI01
aI00
aI00
aI01
aI00
aI00
aI01
aI01
aI01
aI00
aI01
aI01
aa(lp72
I01
aI00
aI01
aI00
aI01
aI01
aI00
aI01
aI01
aI00
aI01
aI00
aI00
aI00
aI00
aI01
aa(lp73
I01
aI00
aI01
aI01
aI01
aI00
aI00
aI01
aI01
aI01
aI01
aI00
aI01
aI00
aI01
aI01
aa(lp74
I01
aI00
aI01
aI00
aI01
aI01
aI00
aI00
aI01
aI00
aI01
aI00
aI01
aI00
aI00
aI01
aa(lp75
I01
aI00
aI00
aI00
aI00
aI01
aI00
aI01
aI01
aI00
aI01
aI01
aI01
aI00
aI01
aI01
aa(lp76
I01
aI01
aI00
aI01
aI00
aI01
aI00
aI00
aI00
aI00
aI00
aI00
aI00
aI00
aI00
aI01
aa(lp77
I01
aI00
aI00
aI01
aI00
aI00
aI00
aI00
aI00
aI01
aI01
aI01
aI00
aI01
aI00
aI01
aa(lp78
I01
aI00
aI01
aI01
aI01
aI00
aI01
aI00
aI00
aI00
aI01
aI00
aI00
aI01
aI00
aI01
aa(lp79
I01
aI00
aI00
aI01
aI00
aI00
aI01
aI00
aI00
aI01
aI01
aI00
aI00
aI00
aI00
aI01
aa(lp80
I01
aI00
aI00
aI00
aI00
aI01
aI01
aI00
aI00
aI01
aI00
aI00
aI01
aI00
aI00
aI01
aa(lp81
I01
aI00
aI01
aI00
aI00
aI01
aI00
aI00
aI00
aI01
aI00
aI01
aI01
aI01
aI00
aI01
aa(lp82
I01
aI00
aI01
aI00
aI01
aI01
aI01
aI00
aI00
aI00
aI00
aI00
aI01
aI00
aI00
aI01
aa(lp83
I01
aI00
aI00
aI00
aI00
aI00
aI00
aI00
aI00
aI00
aI01
aI00
aI01
aI00
aI01
aI01
aa(lp84
I01
aI01
aI00
aI01
aI01
aI01
aI00
aI01
aI01
aI00
aI01
aI00
aI00
aI00
aI00
aI01
aa(lp85
I01
aI00
aI00
aI01
aI00
aI01
aI00
aI01
aI00
aI00
aI01
aI01
aI00
aI01
aI00
aI01
aa(lp86
I01
aI01
aI00
aI01
aI00
aI01
aI01
aI01
aI01
aI00
aI00
aI01
aI01
aI01
aI00
aI01
aa(lp87
I01
aI00
aI00
aI00
aI00
aI01
aI00
aI01
aI01
aI00
aI01
aI01
aI00
aI01
aI00
aI01
aa(lp88
I01
aI01
aI00
aI01
aI01
aI01
aI00
aI00
aI01
aI00
aI00
aI01
aI00
aI00
aI00
aI01
aa(lp89
I01
aI00
aI00
aI00
aI00
aI00
aI00
aI01
aI01
aI01
aI00
aI01
aI01
aI00
aI01
aI01
aa(lp90
I01
aI00
aI01
aI00
aI01
aI00
aI01
aI01
aI00
aI00
aI00
aI00
aI00
aI00
aI00
aI01
aa(lp91
I01
aI01
aI01
aI01
aI01
aI00
aI00
aI00
aI00
aI00
aI01
aI01
aI01
aI01
aI01
aI01
aa(lp92
I01
aI00
aI00
aI00
aI00
aI00
aI01
aI00
aI01
aI00
aI00
aI00
aI00
aI00
aI00
aI01
aa(lp93
I01
aI00
aI01
aI01
aI01
aI01
aI01
aI01
aI01
aI01
aI01
aI01
aI01
aI01
aI01
aI01
aa(lp94
I01
aI00
aI00
aI00
aI00
aI00
aI00
aI00
aI00
aI00
aI00
aI00
aI00
aI00
aI00
aI01
aa(lp95
I01
aI01
aI01
aI01
aI01
aI01
aI01
aI01
aI01
aI01
aI01
aI01
aI01
aI01
aI01
aI01
aasg49
I16
sbsS'layoutText'
p96
(lp97
S'%%%%%%%%%%%%%%%%%%%%%%%%%%%%%%%%'
p98
aS'%   %. %.%.%       %     %.%.%4%'
p99
aS'% % %%       %%  %   %%%   %.%2%'
p100
aS'% % %. % %%%    %%%% .%..% % % %'
p101
aS'% % %% % ..% %   %   %%%%% % % %'
p102
aS'% %    %%%%% %%%   %%%.% o % % %'
p103
aS'% %% % ..%.  %.%%%       %   % %'
p104
aS'% %. %%.%%%%        %.%%%%  %% %'
p105
aS'% %%  %%%%.%        %%%%.%% .% %'
p106
aS'% %   %       %%%.%  .%.. % %% %'
p107
aS'% % % o %.%%%   %%% %%%%%    % %'
p108
aS'% % % %%%%%   %   % %.. % %% % %'
p109
aS'% % % %..%. %%%%    %%% % .% % %'
p110
aS'%1%.%   %%%   %  %%       %% % %'
p111
aS'%3%.%.%     %       %.%.% .%   %'
p112
aS'%%%%%%%%%%%%%%%%%%%%%%%%%%%%%%%%'
p113
asbsS'blueTeamName'
p114
S'JK'
p115
sS'actions'
p116
(lp117
(I1
S'North'
p118
tp119
a(I2
g118
tp120
a(I3
S'South'
p121
tp122
a(I0
g118
tp123
a(I1
g121
tp124
a(I2
g118
tp125
a(I3
g121
tp126
a(I0
g118
tp127
a(I1
g118
tp128
a(I2
g118
tp129
a(I3
g121
tp130
a(I0
g118
tp131
a(I1
g121
tp132
a(I2
g118
tp133
a(I3
g121
tp134
a(I0
g118
tp135
a(I1
g121
tp136
a(I2
g118
tp137
a(I3
g121
tp138
a(I0
g118
tp139
a(I1
g121
tp140
a(I2
g118
tp141
a(I3
g121
tp142
a(I0
g118
tp143
a(I1
g121
tp144
a(I2
g118
tp145
a(I3
g121
tp146
a(I0
g118
tp147
a(I1
g121
tp148
a(I2
g118
tp149
a(I3
g121
tp150
a(I0
g118
tp151
a(I1
g121
tp152
a(I2
g118
tp153
a(I3
g121
tp154
a(I0
g118
tp155
a(I1
g121
tp156
a(I2
g118
tp157
a(I3
g121
tp158
a(I0
g118
tp159
a(I1
g121
tp160
a(I2
g118
tp161
a(I3
g121
tp162
a(I0
g118
tp163
a(I1
g121
tp164
a(I2
g118
tp165
a(I3
g121
tp166
a(I0
g118
tp167
a(I1
g121
tp168
a(I2
g118
tp169
a(I3
g121
tp170
a(I0
S'East'
p171
tp172
a(I1
g121
tp173
a(I2
g171
tp174
a(I3
S'West'
p175
tp176
a(I0
g171
tp177
a(I1
g121
tp178
a(I2
g171
tp179
a(I3
g175
tp180
a(I0
g121
tp181
a(I1
g121
tp182
a(I2
g121
tp183
a(I3
g118
tp184
a(I0
g121
tp185
a(I1
g175
tp186
a(I2
g121
tp187
a(I3
g118
tp188
a(I0
g121
tp189
a(I1
g175
tp190
a(I2
g121
tp191
a(I3
g118
tp192
a(I0
g121
tp193
a(I1
g118
tp194
a(I2
g121
tp195
a(I3
g118
tp196
a(I0
g171
tp197
a(I1
g118
tp198
a(I2
g171
tp199
a(I3
g175
tp200
a(I0
g171
tp201
a(I1
g118
tp202
a(I2
g121
tp203
a(I3
g175
tp204
a(I0
g171
tp205
a(I1
g118
tp206
a(I2
g121
tp207
a(I3
g175
tp208
a(I0
g118
tp209
a(I1
g175
tp210
a(I2
g121
tp211
a(I3
g121
tp212
a(I0
g118
tp213
a(I1
g118
tp214
a(I2
g171
tp215
a(I3
g121
tp216
a(I0
g118
tp217
a(I1
g121
tp218
a(I2
g121
tp219
a(I3
g121
tp220
a(I0
g171
tp221
a(I1
g118
tp222
a(I2
g121
tp223
a(I3
g175
tp224
a(I0
g171
tp225
a(I1
g118
tp226
a(I2
g171
tp227
a(I3
g175
tp228
a(I0
g171
tp229
a(I1
g121
tp230
a(I2
g171
tp231
a(I3
g175
tp232
a(I0
g171
tp233
a(I1
g118
tp234
a(I2
g118
tp235
a(I3
g175
tp236
a(I0
g171
tp237
a(I1
g121
tp238
a(I2
g171
tp239
a(I3
g175
tp240
a(I0
g171
tp241
a(I1
g118
tp242
a(I2
g171
tp243
a(I3
g175
tp244
a(I0
g121
tp245
a(I1
g121
tp246
a(I2
g171
tp247
a(I3
g118
tp248
a(I0
g121
tp249
a(I1
g121
tp250
a(I2
g171
tp251
a(I3
g118
tp252
a(I0
g121
tp253
a(I1
g118
tp254
a(I2
g171
tp255
a(I3
g118
tp256
a(I0
g121
tp257
a(I1
g121
tp258
a(I2
g171
tp259
a(I3
g121
tp260
a(I0
g121
tp261
a(I1
g118
tp262
a(I2
g118
tp263
a(I3
g118
tp264
a(I0
g171
tp265
a(I1
g121
tp266
a(I2
g171
tp267
a(I3
g118
tp268
a(I0
g171
tp269
a(I1
g118
tp270
a(I2
g171
tp271
a(I3
g118
tp272
a(I0
g175
tp273
a(I1
g121
tp274
a(I2
g171
tp275
a(I3
g175
tp276
a(I0
g175
tp277
a(I1
g118
tp278
a(I2
g171
tp279
a(I3
g175
tp280
a(I0
g171
tp281
a(I1
g118
tp282
a(I2
g118
tp283
a(I3
g175
tp284
a(I0
g175
tp285
a(I1
g118
tp286
a(I2
g118
tp287
a(I3
g175
tp288
a(I0
g171
tp289
a(I1
g118
tp290
a(I2
g118
tp291
a(I3
g175
tp292
a(I0
g171
tp293
a(I1
g175
tp294
a(I2
g118
tp295
a(I3
g175
tp296
a(I0
g121
tp297
a(I1
g118
tp298
a(I2
g118
tp299
a(I3
g118
tp300
a(I0
g118
tp301
a(I1
g175
tp302
a(I2
g118
tp303
a(I3
g175
tp304
a(I0
g175
tp305
a(I1
g175
tp306
a(I2
g118
tp307
a(I3
g118
tp308
a(I0
g175
tp309
a(I1
g121
tp310
a(I2
g118
tp311
a(I3
g175
tp312
a(I0
g118
tp313
a(I1
g175
tp314
a(I2
g118
tp315
a(I3
g175
tp316
a(I0
g175
tp317
a(I1
g175
tp318
a(I2
g118
tp319
a(I3
g171
tp320
a(I0
g171
tp321
a(I1
g175
tp322
a(I2
g118
tp323
a(I3
g121
tp324
a(I0
g121
tp325
a(I1
g175
tp326
a(I2
g118
tp327
a(I3
g121
tp328
a(I0
g171
tp329
a(I1
g175
tp330
a(I2
g118
tp331
a(I3
g121
tp332
a(I0
g171
tp333
a(I1
g121
tp334
a(I2
g171
tp335
a(I3
g121
tp336
a(I0
g121
tp337
a(I1
g175
tp338
a(I2
g171
tp339
a(I3
g121
tp340
a(I0
g175
tp341
a(I1
g175
tp342
a(I2
g121
tp343
a(I3
g121
tp344
a(I0
g121
tp345
a(I1
g121
tp346
a(I2
g121
tp347
a(I3
g121
tp348
a(I0
g175
tp349
a(I1
g118
tp350
a(I2
g121
tp351
a(I3
g121
tp352
a(I0
g171
tp353
a(I1
g171
tp354
a(I2
g121
tp355
a(I3
g121
tp356
a(I0
g118
tp357
a(I1
g121
tp358
a(I2
g171
tp359
a(I3
g121
tp360
a(I0
g118
tp361
a(I1
g171
tp362
a(I2
g121
tp363
a(I3
g121
tp364
a(I0
g171
tp365
a(I1
g175
tp366
a(I2
g121
tp367
a(I3
g121
tp368
a(I0
g118
tp369
a(I1
g118
tp370
a(I2
g121
tp371
a(I3
g121
tp372
a(I0
g121
tp373
a(I1
g121
tp374
a(I2
g121
tp375
a(I3
g175
tp376
a(I0
g118
tp377
a(I1
g175
tp378
a(I2
g171
tp379
a(I3
g175
tp380
a(I0
g121
tp381
a(I1
g118
tp382
a(I2
g121
tp383
a(I3
g118
tp384
a(I0
g121
tp385
a(I1
g171
tp386
a(I2
g171
tp387
a(I3
g118
tp388
a(I0
g175
tp389
a(I1
g121
tp390
a(I2
g171
tp391
a(I3
g118
tp392
a(I0
g118
tp393
a(I1
g171
tp394
a(I2
g118
tp395
a(I3
g118
tp396
a(I0
g171
tp397
a(I1
g175
tp398
a(I2
g171
tp399
a(I3
g175
tp400
a(I0
g118
tp401
a(I1
g175
tp402
a(I2
g171
tp403
a(I3
g118
tp404
a(I0
g121
tp405
a(I1
g171
tp406
a(I2
g171
tp407
a(I3
g118
tp408
a(I0
g175
tp409
a(I1
g175
tp410
a(I2
g171
tp411
a(I3
g118
tp412
a(I0
g175
tp413
a(I1
g175
tp414
a(I2
g171
tp415
a(I3
g118
tp416
a(I0
g118
tp417
a(I1
g175
tp418
a(I2
g171
tp419
a(I3
g175
tp420
a(I0
g121
tp421
a(I1
g118
tp422
a(I2
g118
tp423
a(I3
g118
tp424
a(I0
g171
tp425
a(I1
g175
tp426
a(I2
g171
tp427
a(I3
g118
tp428
a(I0
g171
tp429
a(I1
g121
tp430
a(I2
g171
tp431
a(I3
g121
tp432
a(I0
g171
tp433
a(I1
g121
tp434
a(I2
g118
tp435
a(I3
g175
tp436
a(I0
g171
tp437
a(I1
g121
tp438
a(I2
g175
tp439
a(I3
g175
tp440
a(I0
g171
tp441
a(I1
g121
tp442
a(I2
g121
tp443
a(I3
g121
tp444
a(I0
g121
tp445
a(I1
g121
tp446
a(I2
g171
tp447
a(I3
g175
tp448
a(I0
g121
tp449
a(I1
g121
tp450
a(I2
g118
tp451
a(I3
g175
tp452
a(I0
g118
tp453
a(I1
g121
tp454
a(I2
g175
tp455
a(I3
g175
tp456
a(I0
g171
tp457
a(I1
g121
tp458
a(I2
g121
tp459
a(I3
g175
tp460
a(I0
g175
tp461
a(I1
g121
tp462
a(I2
g171
tp463
a(I3
g175
tp464
a(I0
g175
tp465
a(I1
g121
tp466
a(I2
g118
tp467
a(I3
g175
tp468
a(I0
g175
tp469
a(I1
g121
tp470
a(I2
g171
tp471
a(I3
g121
tp472
a(I0
g175
tp473
a(I1
g121
tp474
a(I2
g171
tp475
a(I3
g175
tp476
a(I0
g175
tp477
a(I1
g175
tp478
a(I2
g118
tp479
a(I3
g171
tp480
a(I0
g171
tp481
a(I1
g175
tp482
a(I2
g118
tp483
a(I3
g118
tp484
a(I0
g171
tp485
a(I1
g118
tp486
a(I2
g118
tp487
a(I3
g121
tp488
a(I0
g175
tp489
a(I1
g118
tp490
a(I2
g118
tp491
a(I3
g118
tp492
a(I0
g171
tp493
a(I1
g118
tp494
a(I2
g118
tp495
a(I3
g118
tp496
a(I0
g171
tp497
a(I1
g118
tp498
a(I2
g118
tp499
a(I3
g121
tp500
a(I0
g175
tp501
a(I1
g175
tp502
a(I2
g118
tp503
a(I3
g121
tp504
a(I0
g175
tp505
a(I1
g118
tp506
a(I2
g118
tp507
a(I3
g175
tp508
a(I0
g175
tp509
a(I1
g118
tp510
a(I2
g118
tp511
a(I3
g171
tp512
a(I0
g171
tp513
a(I1
g118
tp514
a(I2
g118
tp515
a(I3
g175
tp516
a(I0
g175
tp517
a(I1
g118
tp518
a(I2
g118
tp519
a(I3
g175
tp520
a(I0
g121
tp521
a(I1
g175
tp522
a(I2
g118
tp523
a(I3
g175
tp524
a(I0
g118
tp525
a(I1
g118
tp526
a(I2
g118
tp527
a(I3
g175
tp528
a(I0
g171
tp529
a(I1
g175
tp530
a(I2
g171
tp531
a(I3
g118
tp532
a(I0
g118
tp533
a(I1
g175
tp534
a(I2
g171
tp535
a(I3
g121
tp536
a(I0
g171
tp537
a(I1
g121
tp538
a(I2
g121
tp539
a(I3
g121
tp540
a(I0
g171
tp541
a(I1
g175
tp542
a(I2
g121
tp543
a(I3
g121
tp544
a(I0
g171
tp545
a(I1
g175
tp546
a(I2
g121
tp547
a(I3
g121
tp548
a(I0
g171
tp549
a(I1
g175
tp550
a(I2
g121
tp551
a(I3
g121
tp552
a(I0
g121
tp553
a(I1
g175
tp554
a(I2
g171
tp555
a(I3
g121
tp556
a(I0
g175
tp557
a(I1
g175
tp558
a(I2
g171
tp559
a(I3
g121
tp560
a(I0
g175
tp561
a(I1
g175
tp562
a(I2
g171
tp563
a(I3
g121
tp564
a(I0
g175
tp565
a(I1
g121
tp566
a(I2
g118
tp567
a(I3
g121
tp568
a(I0
g175
tp569
a(I1
g175
tp570
a(I2
g118
tp571
a(I3
g121
tp572
a(I0
g175
tp573
a(I1
g121
tp574
a(I2
g118
tp575
a(I3
g121
tp576
a(I0
g118
tp577
a(I1
g175
tp578
a(I2
g171
tp579
a(I3
g121
tp580
a(I0
g175
tp581
a(I1
g175
tp582
a(I2
g171
tp583
a(I3
g121
tp584
a(I0
g171
tp585
a(I1
g175
tp586
a(I2
g171
tp587
a(I3
g121
tp588
a(I0
g171
tp589
a(I1
g175
tp590
a(I2
g171
tp591
a(I3
g175
tp592
a(I0
g121
tp593
a(I1
g121
tp594
a(I2
g171
tp595
a(I3
g175
tp596
a(I0
g175
tp597
a(I1
g175
tp598
a(I2
g171
tp599
a(I3
g118
tp600
a(I0
g121
tp601
a(I1
g175
tp602
a(I2
g121
tp603
a(I3
g118
tp604
a(I0
g175
tp605
a(I1
g175
tp606
a(I2
g121
tp607
a(I3
g118
tp608
a(I0
g175
tp609
a(I1
g118
tp610
a(I2
g121
tp611
a(I3
g118
tp612
a(I0
g175
tp613
a(I1
g121
tp614
a(I2
g121
tp615
a(I3
g175
tp616
a(I0
g171
tp617
a(I1
g118
tp618
a(I2
g121
tp619
a(I3
g175
tp620
a(I0
g171
tp621
a(I1
g121
tp622
a(I2
g171
tp623
a(I3
g175
tp624
a(I0
g118
tp625
a(I1
g121
tp626
a(I2
g171
tp627
a(I3
g121
tp628
a(I0
g171
tp629
a(I1
g121
tp630
a(I2
g121
tp631
a(I3
g121
tp632
a(I0
g171
tp633
a(I1
g121
tp634
a(I2
g171
tp635
a(I3
g121
tp636
a(I0
g171
tp637
a(I1
g121
tp638
a(I2
g118
tp639
a(I3
g175
tp640
a(I0
g171
tp641
a(I1
g121
tp642
a(I2
g175
tp643
a(I3
g175
tp644
a(I0
g171
tp645
a(I1
g121
tp646
a(I2
g121
tp647
a(I3
g175
tp648
a(I0
g171
tp649
a(I1
g121
tp650
a(I2
g171
tp651
a(I3
g175
tp652
a(I0
g171
tp653
a(I1
g121
tp654
a(I2
g118
tp655
a(I3
g175
tp656
a(I0
g118
tp657
a(I1
g121
tp658
a(I2
g175
tp659
a(I3
g175
tp660
a(I0
g118
tp661
a(I1
g121
tp662
a(I2
g121
tp663
a(I3
g118
tp664
a(I0
g171
tp665
a(I1
g121
tp666
a(I2
g171
tp667
a(I3
g175
tp668
a(I0
g171
tp669
a(I1
g121
tp670
a(I2
g118
tp671
a(I3
g175
tp672
a(I0
g121
tp673
a(I1
g175
tp674
a(I2
g175
tp675
a(I3
g175
tp676
a(I0
g118
tp677
a(I1
g175
tp678
a(I2
g121
tp679
a(I3
g118
tp680
a(I0
g171
tp681
a(I1
g118
tp682
a(I2
g175
tp683
a(I3
g175
tp684
a(I0
g175
tp685
a(I1
g118
tp686
a(I2
g121
tp687
a(I3
g118
tp688
a(I0
g175
tp689
a(I1
g118
tp690
a(I2
g121
tp691
a(I3
g175
tp692
a(I0
g175
tp693
a(I1
g118
tp694
a(I2
g171
tp695
a(I3
g121
tp696
a(I0
g171
tp697
a(I1
g175
tp698
a(I2
g171
tp699
a(I3
g121
tp700
a(I0
g171
tp701
a(I1
g175
tp702
a(I2
g121
tp703
a(I3
g121
tp704
a(I0
g171
tp705
a(I1
g175
tp706
a(I2
g171
tp707
a(I3
g121
tp708
a(I0
g118
tp709
a(I1
g121
tp710
a(I2
g121
tp711
a(I3
g121
tp712
a(I0
g121
tp713
a(I1
g121
tp714
a(I2
g171
tp715
a(I3
g121
tp716
a(I0
g171
tp717
a(I1
g121
tp718
a(I2
g171
tp719
a(I3
g121
tp720
a(I0
g171
tp721
a(I1
g175
tp722
a(I2
g171
tp723
a(I3
g121
tp724
a(I0
g118
tp725
a(I1
g175
tp726
a(I2
g121
tp727
a(I3
g121
tp728
a(I0
g121
tp729
a(I1
g175
tp730
a(I2
g171
tp731
a(I3
g121
tp732
a(I0
g118
tp733
a(I1
g175
tp734
a(I2
g175
tp735
a(I3
g121
tp736
a(I0
g121
tp737
a(I1
g175
tp738
a(I2
g118
tp739
a(I3
g121
tp740
a(I0
g118
tp741
a(I1
g175
tp742
a(I2
g118
tp743
a(I3
g121
tp744
a(I0
g121
tp745
a(I1
g118
tp746
a(I2
g118
tp747
a(I3
g175
tp748
a(I0
g118
tp749
a(I1
g118
tp750
a(I2
g118
tp751
a(I3
g175
tp752
a(I0
g121
tp753
a(I1
g118
tp754
a(I2
g171
tp755
a(I3
g118
tp756
a(I0
g118
tp757
a(I1
g118
tp758
a(I2
g171
tp759
a(I3
g118
tp760
a(I0
g121
tp761
a(I1
g171
tp762
a(I2
S'Stop'
p763
tp764
a(I3
g118
tp765
a(I0
g118
tp766
a(I1
g171
tp767
a(I2
g118
tp768
a(I3
g118
tp769
a(I0
g171
tp770
a(I1
g175
tp771
a(I2
g118
tp772
a(I3
g175
tp773
a(I0
g171
tp774
a(I1
g175
tp775
a(I2
g118
tp776
a(I3
g175
tp777
a(I0
g118
tp778
a(I1
g118
tp779
a(I2
g118
tp780
a(I3
g175
tp781
a(I0
g118
tp782
a(I1
g121
tp783
a(I2
g118
tp784
a(I3
g121
tp785
a(I0
g118
tp786
a(I1
g121
tp787
a(I2
g118
tp788
a(I3
g121
tp789
a(I0
g118
tp790
a(I1
g121
tp791
a(I2
g118
tp792
a(I3
g121
tp793
a(I0
g121
tp794
a(I1
g121
tp795
a(I2
g118
tp796
a(I3
g175
tp797
a(I0
g175
tp798
a(I1
g175
tp799
a(I2
g118
tp800
a(I3
g175
tp801
a(I0
g175
tp802
a(I1
g175
tp803
a(I2
g118
tp804
a(I3
g175
tp805
a(I0
g121
tp806
a(I1
g175
tp807
a(I2
g118
tp808
a(I3
g175
tp809
a(I0
g175
tp810
a(I1
g121
tp811
a(I2
g118
tp812
a(I3
g175
tp813
a(I0
g171
tp814
a(I1
g175
tp815
a(I2
g118
tp816
a(I3
g175
tp817
a(I0
g118
tp818
a(I1
g121
tp819
a(I2
g171
tp820
a(I3
g121
tp821
a(I0
g118
tp822
a(I1
g175
tp823
a(I2
g171
tp824
a(I3
g175
tp825
a(I0
g175
tp826
a(I1
g175
tp827
a(I2
g121
tp828
a(I3
g175
tp829
a(I0
g175
tp830
a(I1
g118
tp831
a(I2
g121
tp832
a(I3
g175
tp833
a(I0
g175
tp834
a(I1
g175
tp835
a(I2
g121
tp836
a(I3
g175
tp837
a(I0
g175
tp838
a(I1
g175
tp839
a(I2
g121
tp840
a(I3
g175
tp841
a(I0
g121
tp842
a(I1
g118
tp843
a(I2
g171
tp844
a(I3
g175
tp845
a(I0
g121
tp846
a(I1
g175
tp847
a(I2
g121
tp848
a(I3
g118
tp849
a(I0
g171
tp850
a(I1
g171
tp851
a(I2
g121
tp852
a(I3
g175
tp853
a(I0
g175
tp854
a(I1
g121
tp855
a(I2
g175
tp856
a(I3
g175
tp857
a(I0
g121
tp858
a(I1
g121
tp859
a(I2
g171
tp860
a(I3
g121
tp861
a(I0
g175
tp862
a(I1
g175
tp863
a(I2
g121
tp864
a(I3
g175
tp865
a(I0
g175
tp866
a(I1
g175
tp867
a(I2
g171
tp868
a(I3
g175
tp869
a(I0
g121
tp870
a(I1
g175
tp871
a(I2
g121
tp872
a(I3
g175
tp873
a(I0
g121
tp874
a(I1
g175
tp875
a(I2
g175
tp876
a(I3
g175
tp877
a(I0
g121
tp878
a(I1
g118
tp879
a(I2
g118
tp880
a(I3
g118
tp881
a(I0
g121
tp882
a(I1
g118
tp883
a(I2
g118
tp884
a(I3
g175
tp885
a(I0
g171
tp886
a(I1
g171
tp887
a(I2
g175
tp888
a(I3
g175
tp889
a(I0
g121
tp890
a(I1
g175
tp891
a(I2
g171
tp892
a(I3
g121
tp893
a(I0
g121
tp894
a(I1
g121
tp895
a(I2
g118
tp896
a(I3
g118
tp897
a(I0
g121
tp898
a(I1
g175
tp899
a(I2
g118
tp900
a(I3
g118
tp901
a(I0
g121
tp902
a(I1
g175
tp903
a(I2
g171
tp904
a(I3
g118
tp905
a(I0
g121
tp906
a(I1
g118
tp907
a(I2
g171
tp908
a(I3
g118
tp909
a(I0
g171
tp910
a(I1
g118
tp911
a(I2
g121
tp912
a(I3
g118
tp913
a(I0
g175
tp914
a(I1
g118
tp915
a(I2
g171
tp916
a(I3
g118
tp917
a(I0
g118
tp918
a(I1
g171
tp919
a(I2
g171
tp920
a(I3
g175
tp921
a(I0
g121
tp922
a(I1
g175
tp923
a(I2
g175
tp924
a(I3
g118
tp925
a(I0
g118
tp926
a(I1
g118
tp927
a(I2
g121
tp928
a(I3
g175
tp929
a(I0
g175
tp930
a(I1
g175
tp931
a(I2
g118
tp932
a(I3
g171
tp933
a(I0
g175
tp934
a(I1
g175
tp935
a(I2
g171
tp936
a(I3
g118
tp937
a(I0
g118
tp938
a(I1
g121
tp939
a(I2
g175
tp940
a(I3
g121
tp941
a(I0
g175
tp942
a(I1
g121
tp943
a(I2
g121
tp944
a(I3
g121
tp945
a(I0
g175
tp946
a(I1
g121
tp947
a(I2
g118
tp948
a(I3
g121
tp949
a(I0
g171
tp950
a(I1
g121
tp951
a(I2
g171
tp952
a(I3
g175
tp953
a(I0
g121
tp954
a(I1
g121
tp955
a(I2
g175
tp956
a(I3
g121
tp957
a(I0
g171
tp958
a(I1
g118
tp959
a(I2
g121
tp960
a(I3
g118
tp961
a(I0
g171
tp962
a(I1
g118
tp963
a(I2
g118
tp964
a(I3
g171
tp965
a(I0
g171
tp966
a(I1
g118
tp967
a(I2
g171
tp968
a(I3
g118
tp969
a(I0
g121
tp970
a(I1
g118
tp971
a(I2
g175
tp972
a(I3
g118
tp973
a(I0
g118
tp974
a(I1
g118
tp975
a(I2
g121
tp976
a(I3
g118
tp977
a(I0
g175
tp978
a(I1
g171
tp979
a(I2
g118
tp980
a(I3
g118
tp981
a(I0
g175
tp982
a(I1
g118
tp983
a(I2
g171
tp984
a(I3
g171
tp985
a(I0
g118
tp986
a(I1
g118
tp987
a(I2
g175
tp988
a(I3
g171
tp989
a(I0
g175
tp990
a(I1
g118
tp991
a(I2
g121
tp992
a(I3
g121
tp993
a(I0
g175
tp994
a(I1
g118
tp995
a(I2
g118
tp996
a(I3
g171
tp997
a(I0
g171
tp998
a(I1
g171
tp999
a(I2
g118
tp1000
a(I3
g171
tp1001
a(I0
g171
tp1002
a(I1
g171
tp1003
a(I2
g118
tp1004
a(I3
g175
tp1005
a(I0
g121
tp1006
a(I1
g118
tp1007
a(I2
g118
tp1008
a(I3
g121
tp1009
a(I0
g171
tp1010
a(I1
g118
tp1011
a(I2
g118
tp1012
a(I3
g118
tp1013
a(I0
g171
tp1014
a(I1
g175
tp1015
a(I2
g118
tp1016
a(I3
g175
tp1017
a(I0
g121
tp1018
a(I1
g171
tp1019
a(I2
g118
tp1020
a(I3
g118
tp1021
a(I0
g171
tp1022
a(I1
g118
tp1023
a(I2
g118
tp1024
a(I3
g118
tp1025
a(I0
g171
tp1026
a(I1
g118
tp1027
a(I2
g118
tp1028
a(I3
g118
tp1029
a(I0
g121
tp1030
a(I1
g175
tp1031
a(I2
g118
tp1032
a(I3
g118
tp1033
a(I0
g118
tp1034
a(I1
g171
tp1035
a(I2
g118
tp1036
a(I3
g171
tp1037
a(I0
g171
tp1038
a(I1
g121
tp1039
a(I2
g118
tp1040
a(I3
g171
tp1041
a(I0
g171
tp1042
a(I1
g171
tp1043
a(I2
g118
tp1044
a(I3
g118
tp1045
a(I0
g121
tp1046
a(I1
g171
tp1047
a(I2
g118
tp1048
a(I3
g121
tp1049
a(I0
g118
tp1050
a(I1
g171
tp1051
a(I2
g171
tp1052
a(I3
g121
tp1053
a(I0
g118
tp1054
a(I1
g171
tp1055
a(I2
g171
tp1056
a(I3
g121
tp1057
a(I0
g118
tp1058
a(I1
g118
tp1059
a(I2
g121
tp1060
a(I3
g171
tp1061
asS'length'
p1062
I1200
sS'agents'
p1063
(lp1064
(igame
Agent
p1065
(dp1066
S'index'
p1067
I0
sba(igame
Agent
p1068
(dp1069
g1067
I0
sba(igame
Agent
p1070
(dp1071
g1067
I0
sba(igame
Agent
p1072
(dp1073
g1067
I0
sbasS'redTeamName'
p1074
S'SquidInk'
p1075
s.